Archive member included to satisfy reference by file (symbol)

/opt/gcc-arm-none-eabi-10.3-2021.07/bin/../lib/gcc/arm-none-eabi/10.3.1/../../../../arm-none-eabi/lib/thumb/v7e-m/nofp/libc.a(lib_a-malloc.o)
                              build/machines/cortex/armv7em/stm32f303/coroLabBoard/tft/Adafruit-GFX-Library/Adafruit_GFX.cpp.o (malloc)
/opt/gcc-arm-none-eabi-10.3-2021.07/bin/../lib/gcc/arm-none-eabi/10.3.1/../../../../arm-none-eabi/lib/thumb/v7e-m/nofp/libc.a(lib_a-mallocr.o)
                              /opt/gcc-arm-none-eabi-10.3-2021.07/bin/../lib/gcc/arm-none-eabi/10.3.1/../../../../arm-none-eabi/lib/thumb/v7e-m/nofp/libc.a(lib_a-malloc.o) (_malloc_r)
/opt/gcc-arm-none-eabi-10.3-2021.07/bin/../lib/gcc/arm-none-eabi/10.3.1/../../../../arm-none-eabi/lib/thumb/v7e-m/nofp/libc.a(lib_a-memset.o)
                              build/machines/cortex/armv7em/stm32f303/coroLabBoard/tft/Adafruit-GFX-Library/Adafruit_GFX.cpp.o (memset)
/opt/gcc-arm-none-eabi-10.3-2021.07/bin/../lib/gcc/arm-none-eabi/10.3.1/../../../../arm-none-eabi/lib/thumb/v7e-m/nofp/libc.a(lib_a-mlock.o)
                              /opt/gcc-arm-none-eabi-10.3-2021.07/bin/../lib/gcc/arm-none-eabi/10.3.1/../../../../arm-none-eabi/lib/thumb/v7e-m/nofp/libc.a(lib_a-mallocr.o) (__malloc_lock)
/opt/gcc-arm-none-eabi-10.3-2021.07/bin/../lib/gcc/arm-none-eabi/10.3.1/../../../../arm-none-eabi/lib/thumb/v7e-m/nofp/libc.a(lib_a-printf.o)
                              build/lab1.cpp.o (printf)
/opt/gcc-arm-none-eabi-10.3-2021.07/bin/../lib/gcc/arm-none-eabi/10.3.1/../../../../arm-none-eabi/lib/thumb/v7e-m/nofp/libc.a(lib_a-sbrkr.o)
                              /opt/gcc-arm-none-eabi-10.3-2021.07/bin/../lib/gcc/arm-none-eabi/10.3.1/../../../../arm-none-eabi/lib/thumb/v7e-m/nofp/libc.a(lib_a-mallocr.o) (_sbrk_r)
/opt/gcc-arm-none-eabi-10.3-2021.07/bin/../lib/gcc/arm-none-eabi/10.3.1/../../../../arm-none-eabi/lib/thumb/v7e-m/nofp/libc.a(lib_a-strlen.o)
                              build/machines/cortex/armv7em/stm32f303/coroLabBoard/tft/arduinoCore/Print.cpp.o (strlen)
/opt/gcc-arm-none-eabi-10.3-2021.07/bin/../lib/gcc/arm-none-eabi/10.3.1/../../../../arm-none-eabi/lib/thumb/v7e-m/nofp/libc.a(lib_a-strncpy.o)
                              build/machines/cortex/armv7em/stm32f303/coroLabBoard/tft/Adafruit-GFX-Library/Adafruit_GFX.cpp.o (strncpy)
/opt/gcc-arm-none-eabi-10.3-2021.07/bin/../lib/gcc/arm-none-eabi/10.3.1/../../../../arm-none-eabi/lib/thumb/v7e-m/nofp/libc.a(lib_a-vfprintf.o)
                              /opt/gcc-arm-none-eabi-10.3-2021.07/bin/../lib/gcc/arm-none-eabi/10.3.1/../../../../arm-none-eabi/lib/thumb/v7e-m/nofp/libc.a(lib_a-printf.o) (_vfprintf_r)
/opt/gcc-arm-none-eabi-10.3-2021.07/bin/../lib/gcc/arm-none-eabi/10.3.1/../../../../arm-none-eabi/lib/thumb/v7e-m/nofp/libc.a(lib_a-wsetup.o)
                              /opt/gcc-arm-none-eabi-10.3-2021.07/bin/../lib/gcc/arm-none-eabi/10.3.1/../../../../arm-none-eabi/lib/thumb/v7e-m/nofp/libc.a(lib_a-vfprintf.o) (__swsetup_r)
/opt/gcc-arm-none-eabi-10.3-2021.07/bin/../lib/gcc/arm-none-eabi/10.3.1/../../../../arm-none-eabi/lib/thumb/v7e-m/nofp/libc.a(lib_a-dtoa.o)
                              /opt/gcc-arm-none-eabi-10.3-2021.07/bin/../lib/gcc/arm-none-eabi/10.3.1/../../../../arm-none-eabi/lib/thumb/v7e-m/nofp/libc.a(lib_a-vfprintf.o) (_dtoa_r)
/opt/gcc-arm-none-eabi-10.3-2021.07/bin/../lib/gcc/arm-none-eabi/10.3.1/../../../../arm-none-eabi/lib/thumb/v7e-m/nofp/libc.a(lib_a-fflush.o)
                              /opt/gcc-arm-none-eabi-10.3-2021.07/bin/../lib/gcc/arm-none-eabi/10.3.1/../../../../arm-none-eabi/lib/thumb/v7e-m/nofp/libc.a(lib_a-vfprintf.o) (_fflush_r)
/opt/gcc-arm-none-eabi-10.3-2021.07/bin/../lib/gcc/arm-none-eabi/10.3.1/../../../../arm-none-eabi/lib/thumb/v7e-m/nofp/libc.a(lib_a-findfp.o)
                              /opt/gcc-arm-none-eabi-10.3-2021.07/bin/../lib/gcc/arm-none-eabi/10.3.1/../../../../arm-none-eabi/lib/thumb/v7e-m/nofp/libc.a(lib_a-vfprintf.o) (__sinit)
/opt/gcc-arm-none-eabi-10.3-2021.07/bin/../lib/gcc/arm-none-eabi/10.3.1/../../../../arm-none-eabi/lib/thumb/v7e-m/nofp/libc.a(lib_a-freer.o)
                              /opt/gcc-arm-none-eabi-10.3-2021.07/bin/../lib/gcc/arm-none-eabi/10.3.1/../../../../arm-none-eabi/lib/thumb/v7e-m/nofp/libc.a(lib_a-malloc.o) (_free_r)
/opt/gcc-arm-none-eabi-10.3-2021.07/bin/../lib/gcc/arm-none-eabi/10.3.1/../../../../arm-none-eabi/lib/thumb/v7e-m/nofp/libc.a(lib_a-fwalk.o)
                              /opt/gcc-arm-none-eabi-10.3-2021.07/bin/../lib/gcc/arm-none-eabi/10.3.1/../../../../arm-none-eabi/lib/thumb/v7e-m/nofp/libc.a(lib_a-findfp.o) (_fwalk)
/opt/gcc-arm-none-eabi-10.3-2021.07/bin/../lib/gcc/arm-none-eabi/10.3.1/../../../../arm-none-eabi/lib/thumb/v7e-m/nofp/libc.a(lib_a-impure.o)
                              /opt/gcc-arm-none-eabi-10.3-2021.07/bin/../lib/gcc/arm-none-eabi/10.3.1/../../../../arm-none-eabi/lib/thumb/v7e-m/nofp/libc.a(lib_a-fflush.o) (_global_impure_ptr)
/opt/gcc-arm-none-eabi-10.3-2021.07/bin/../lib/gcc/arm-none-eabi/10.3.1/../../../../arm-none-eabi/lib/thumb/v7e-m/nofp/libc.a(lib_a-localeconv.o)
                              /opt/gcc-arm-none-eabi-10.3-2021.07/bin/../lib/gcc/arm-none-eabi/10.3.1/../../../../arm-none-eabi/lib/thumb/v7e-m/nofp/libc.a(lib_a-vfprintf.o) (_localeconv_r)
/opt/gcc-arm-none-eabi-10.3-2021.07/bin/../lib/gcc/arm-none-eabi/10.3.1/../../../../arm-none-eabi/lib/thumb/v7e-m/nofp/libc.a(lib_a-lock.o)
                              /opt/gcc-arm-none-eabi-10.3-2021.07/bin/../lib/gcc/arm-none-eabi/10.3.1/../../../../arm-none-eabi/lib/thumb/v7e-m/nofp/libc.a(lib_a-vfprintf.o) (__retarget_lock_init_recursive)
/opt/gcc-arm-none-eabi-10.3-2021.07/bin/../lib/gcc/arm-none-eabi/10.3.1/../../../../arm-none-eabi/lib/thumb/v7e-m/nofp/libc.a(lib_a-makebuf.o)
                              /opt/gcc-arm-none-eabi-10.3-2021.07/bin/../lib/gcc/arm-none-eabi/10.3.1/../../../../arm-none-eabi/lib/thumb/v7e-m/nofp/libc.a(lib_a-wsetup.o) (__smakebuf_r)
/opt/gcc-arm-none-eabi-10.3-2021.07/bin/../lib/gcc/arm-none-eabi/10.3.1/../../../../arm-none-eabi/lib/thumb/v7e-m/nofp/libc.a(lib_a-memchr.o)
                              /opt/gcc-arm-none-eabi-10.3-2021.07/bin/../lib/gcc/arm-none-eabi/10.3.1/../../../../arm-none-eabi/lib/thumb/v7e-m/nofp/libc.a(lib_a-vfprintf.o) (memchr)
/opt/gcc-arm-none-eabi-10.3-2021.07/bin/../lib/gcc/arm-none-eabi/10.3.1/../../../../arm-none-eabi/lib/thumb/v7e-m/nofp/libc.a(lib_a-memcpy.o)
                              /opt/gcc-arm-none-eabi-10.3-2021.07/bin/../lib/gcc/arm-none-eabi/10.3.1/../../../../arm-none-eabi/lib/thumb/v7e-m/nofp/libc.a(lib_a-dtoa.o) (memcpy)
/opt/gcc-arm-none-eabi-10.3-2021.07/bin/../lib/gcc/arm-none-eabi/10.3.1/../../../../arm-none-eabi/lib/thumb/v7e-m/nofp/libc.a(lib_a-mprec.o)
                              /opt/gcc-arm-none-eabi-10.3-2021.07/bin/../lib/gcc/arm-none-eabi/10.3.1/../../../../arm-none-eabi/lib/thumb/v7e-m/nofp/libc.a(lib_a-dtoa.o) (_Balloc)
/opt/gcc-arm-none-eabi-10.3-2021.07/bin/../lib/gcc/arm-none-eabi/10.3.1/../../../../arm-none-eabi/lib/thumb/v7e-m/nofp/libc.a(lib_a-reent.o)
                              /opt/gcc-arm-none-eabi-10.3-2021.07/bin/../lib/gcc/arm-none-eabi/10.3.1/../../../../arm-none-eabi/lib/thumb/v7e-m/nofp/libc.a(lib_a-sbrkr.o) (errno)
/opt/gcc-arm-none-eabi-10.3-2021.07/bin/../lib/gcc/arm-none-eabi/10.3.1/../../../../arm-none-eabi/lib/thumb/v7e-m/nofp/libc.a(lib_a-s_frexp.o)
                              /opt/gcc-arm-none-eabi-10.3-2021.07/bin/../lib/gcc/arm-none-eabi/10.3.1/../../../../arm-none-eabi/lib/thumb/v7e-m/nofp/libc.a(lib_a-vfprintf.o) (frexp)
/opt/gcc-arm-none-eabi-10.3-2021.07/bin/../lib/gcc/arm-none-eabi/10.3.1/../../../../arm-none-eabi/lib/thumb/v7e-m/nofp/libc.a(lib_a-stdio.o)
                              /opt/gcc-arm-none-eabi-10.3-2021.07/bin/../lib/gcc/arm-none-eabi/10.3.1/../../../../arm-none-eabi/lib/thumb/v7e-m/nofp/libc.a(lib_a-findfp.o) (__sread)
/opt/gcc-arm-none-eabi-10.3-2021.07/bin/../lib/gcc/arm-none-eabi/10.3.1/../../../../arm-none-eabi/lib/thumb/v7e-m/nofp/libc.a(lib_a-vfiprintf.o)
                              /opt/gcc-arm-none-eabi-10.3-2021.07/bin/../lib/gcc/arm-none-eabi/10.3.1/../../../../arm-none-eabi/lib/thumb/v7e-m/nofp/libc.a(lib_a-vfprintf.o) (__sprint_r)
/opt/gcc-arm-none-eabi-10.3-2021.07/bin/../lib/gcc/arm-none-eabi/10.3.1/../../../../arm-none-eabi/lib/thumb/v7e-m/nofp/libc.a(lib_a-writer.o)
                              /opt/gcc-arm-none-eabi-10.3-2021.07/bin/../lib/gcc/arm-none-eabi/10.3.1/../../../../arm-none-eabi/lib/thumb/v7e-m/nofp/libc.a(lib_a-stdio.o) (_write_r)
/opt/gcc-arm-none-eabi-10.3-2021.07/bin/../lib/gcc/arm-none-eabi/10.3.1/../../../../arm-none-eabi/lib/thumb/v7e-m/nofp/libc.a(lib_a-assert.o)
                              /opt/gcc-arm-none-eabi-10.3-2021.07/bin/../lib/gcc/arm-none-eabi/10.3.1/../../../../arm-none-eabi/lib/thumb/v7e-m/nofp/libc.a(lib_a-dtoa.o) (__assert_func)
/opt/gcc-arm-none-eabi-10.3-2021.07/bin/../lib/gcc/arm-none-eabi/10.3.1/../../../../arm-none-eabi/lib/thumb/v7e-m/nofp/libc.a(lib_a-callocr.o)
                              /opt/gcc-arm-none-eabi-10.3-2021.07/bin/../lib/gcc/arm-none-eabi/10.3.1/../../../../arm-none-eabi/lib/thumb/v7e-m/nofp/libc.a(lib_a-mprec.o) (_calloc_r)
/opt/gcc-arm-none-eabi-10.3-2021.07/bin/../lib/gcc/arm-none-eabi/10.3.1/../../../../arm-none-eabi/lib/thumb/v7e-m/nofp/libc.a(lib_a-closer.o)
                              /opt/gcc-arm-none-eabi-10.3-2021.07/bin/../lib/gcc/arm-none-eabi/10.3.1/../../../../arm-none-eabi/lib/thumb/v7e-m/nofp/libc.a(lib_a-stdio.o) (_close_r)
/opt/gcc-arm-none-eabi-10.3-2021.07/bin/../lib/gcc/arm-none-eabi/10.3.1/../../../../arm-none-eabi/lib/thumb/v7e-m/nofp/libc.a(lib_a-errno.o)
                              /opt/gcc-arm-none-eabi-10.3-2021.07/bin/../lib/gcc/arm-none-eabi/10.3.1/../../../../arm-none-eabi/lib/thumb/v7e-m/nofp/libc.a(lib_a-callocr.o) (__errno)
/opt/gcc-arm-none-eabi-10.3-2021.07/bin/../lib/gcc/arm-none-eabi/10.3.1/../../../../arm-none-eabi/lib/thumb/v7e-m/nofp/libc.a(lib_a-fclose.o)
                              /opt/gcc-arm-none-eabi-10.3-2021.07/bin/../lib/gcc/arm-none-eabi/10.3.1/../../../../arm-none-eabi/lib/thumb/v7e-m/nofp/libc.a(lib_a-findfp.o) (_fclose_r)
/opt/gcc-arm-none-eabi-10.3-2021.07/bin/../lib/gcc/arm-none-eabi/10.3.1/../../../../arm-none-eabi/lib/thumb/v7e-m/nofp/libc.a(lib_a-fiprintf.o)
                              /opt/gcc-arm-none-eabi-10.3-2021.07/bin/../lib/gcc/arm-none-eabi/10.3.1/../../../../arm-none-eabi/lib/thumb/v7e-m/nofp/libc.a(lib_a-assert.o) (fiprintf)
/opt/gcc-arm-none-eabi-10.3-2021.07/bin/../lib/gcc/arm-none-eabi/10.3.1/../../../../arm-none-eabi/lib/thumb/v7e-m/nofp/libc.a(lib_a-fputwc.o)
                              /opt/gcc-arm-none-eabi-10.3-2021.07/bin/../lib/gcc/arm-none-eabi/10.3.1/../../../../arm-none-eabi/lib/thumb/v7e-m/nofp/libc.a(lib_a-vfiprintf.o) (_fputwc_r)
/opt/gcc-arm-none-eabi-10.3-2021.07/bin/../lib/gcc/arm-none-eabi/10.3.1/../../../../arm-none-eabi/lib/thumb/v7e-m/nofp/libc.a(lib_a-fstatr.o)
                              /opt/gcc-arm-none-eabi-10.3-2021.07/bin/../lib/gcc/arm-none-eabi/10.3.1/../../../../arm-none-eabi/lib/thumb/v7e-m/nofp/libc.a(lib_a-makebuf.o) (_fstat_r)
/opt/gcc-arm-none-eabi-10.3-2021.07/bin/../lib/gcc/arm-none-eabi/10.3.1/../../../../arm-none-eabi/lib/thumb/v7e-m/nofp/libc.a(lib_a-fvwrite.o)
                              /opt/gcc-arm-none-eabi-10.3-2021.07/bin/../lib/gcc/arm-none-eabi/10.3.1/../../../../arm-none-eabi/lib/thumb/v7e-m/nofp/libc.a(lib_a-vfiprintf.o) (__sfvwrite_r)
/opt/gcc-arm-none-eabi-10.3-2021.07/bin/../lib/gcc/arm-none-eabi/10.3.1/../../../../arm-none-eabi/lib/thumb/v7e-m/nofp/libc.a(lib_a-isattyr.o)
                              /opt/gcc-arm-none-eabi-10.3-2021.07/bin/../lib/gcc/arm-none-eabi/10.3.1/../../../../arm-none-eabi/lib/thumb/v7e-m/nofp/libc.a(lib_a-makebuf.o) (_isatty_r)
/opt/gcc-arm-none-eabi-10.3-2021.07/bin/../lib/gcc/arm-none-eabi/10.3.1/../../../../arm-none-eabi/lib/thumb/v7e-m/nofp/libc.a(lib_a-locale.o)
                              /opt/gcc-arm-none-eabi-10.3-2021.07/bin/../lib/gcc/arm-none-eabi/10.3.1/../../../../arm-none-eabi/lib/thumb/v7e-m/nofp/libc.a(lib_a-fputwc.o) (__locale_mb_cur_max)
/opt/gcc-arm-none-eabi-10.3-2021.07/bin/../lib/gcc/arm-none-eabi/10.3.1/../../../../arm-none-eabi/lib/thumb/v7e-m/nofp/libc.a(lib_a-lseekr.o)
                              /opt/gcc-arm-none-eabi-10.3-2021.07/bin/../lib/gcc/arm-none-eabi/10.3.1/../../../../arm-none-eabi/lib/thumb/v7e-m/nofp/libc.a(lib_a-stdio.o) (_lseek_r)
/opt/gcc-arm-none-eabi-10.3-2021.07/bin/../lib/gcc/arm-none-eabi/10.3.1/../../../../arm-none-eabi/lib/thumb/v7e-m/nofp/libc.a(lib_a-mbtowc_r.o)
                              /opt/gcc-arm-none-eabi-10.3-2021.07/bin/../lib/gcc/arm-none-eabi/10.3.1/../../../../arm-none-eabi/lib/thumb/v7e-m/nofp/libc.a(lib_a-locale.o) (__ascii_mbtowc)
/opt/gcc-arm-none-eabi-10.3-2021.07/bin/../lib/gcc/arm-none-eabi/10.3.1/../../../../arm-none-eabi/lib/thumb/v7e-m/nofp/libc.a(lib_a-memmove.o)
                              /opt/gcc-arm-none-eabi-10.3-2021.07/bin/../lib/gcc/arm-none-eabi/10.3.1/../../../../arm-none-eabi/lib/thumb/v7e-m/nofp/libc.a(lib_a-fvwrite.o) (memmove)
/opt/gcc-arm-none-eabi-10.3-2021.07/bin/../lib/gcc/arm-none-eabi/10.3.1/../../../../arm-none-eabi/lib/thumb/v7e-m/nofp/libc.a(lib_a-readr.o)
                              /opt/gcc-arm-none-eabi-10.3-2021.07/bin/../lib/gcc/arm-none-eabi/10.3.1/../../../../arm-none-eabi/lib/thumb/v7e-m/nofp/libc.a(lib_a-stdio.o) (_read_r)
/opt/gcc-arm-none-eabi-10.3-2021.07/bin/../lib/gcc/arm-none-eabi/10.3.1/../../../../arm-none-eabi/lib/thumb/v7e-m/nofp/libc.a(lib_a-reallocr.o)
                              /opt/gcc-arm-none-eabi-10.3-2021.07/bin/../lib/gcc/arm-none-eabi/10.3.1/../../../../arm-none-eabi/lib/thumb/v7e-m/nofp/libc.a(lib_a-fvwrite.o) (_realloc_r)
/opt/gcc-arm-none-eabi-10.3-2021.07/bin/../lib/gcc/arm-none-eabi/10.3.1/../../../../arm-none-eabi/lib/thumb/v7e-m/nofp/libc.a(lib_a-strcmp.o)
                              /opt/gcc-arm-none-eabi-10.3-2021.07/bin/../lib/gcc/arm-none-eabi/10.3.1/../../../../arm-none-eabi/lib/thumb/v7e-m/nofp/libc.a(lib_a-locale.o) (strcmp)
/opt/gcc-arm-none-eabi-10.3-2021.07/bin/../lib/gcc/arm-none-eabi/10.3.1/../../../../arm-none-eabi/lib/thumb/v7e-m/nofp/libc.a(lib_a-wbuf.o)
                              /opt/gcc-arm-none-eabi-10.3-2021.07/bin/../lib/gcc/arm-none-eabi/10.3.1/../../../../arm-none-eabi/lib/thumb/v7e-m/nofp/libc.a(lib_a-fputwc.o) (__swbuf_r)
/opt/gcc-arm-none-eabi-10.3-2021.07/bin/../lib/gcc/arm-none-eabi/10.3.1/../../../../arm-none-eabi/lib/thumb/v7e-m/nofp/libc.a(lib_a-wcrtomb.o)
                              /opt/gcc-arm-none-eabi-10.3-2021.07/bin/../lib/gcc/arm-none-eabi/10.3.1/../../../../arm-none-eabi/lib/thumb/v7e-m/nofp/libc.a(lib_a-fputwc.o) (_wcrtomb_r)
/opt/gcc-arm-none-eabi-10.3-2021.07/bin/../lib/gcc/arm-none-eabi/10.3.1/../../../../arm-none-eabi/lib/thumb/v7e-m/nofp/libc.a(lib_a-wctomb_r.o)
                              /opt/gcc-arm-none-eabi-10.3-2021.07/bin/../lib/gcc/arm-none-eabi/10.3.1/../../../../arm-none-eabi/lib/thumb/v7e-m/nofp/libc.a(lib_a-locale.o) (__ascii_wctomb)
/opt/gcc-arm-none-eabi-10.3-2021.07/bin/../lib/gcc/arm-none-eabi/10.3.1/../../../../arm-none-eabi/lib/thumb/v7e-m/nofp/libc.a(lib_a-abort.o)
                              /opt/gcc-arm-none-eabi-10.3-2021.07/bin/../lib/gcc/arm-none-eabi/10.3.1/../../../../arm-none-eabi/lib/thumb/v7e-m/nofp/libc.a(lib_a-assert.o) (abort)
/opt/gcc-arm-none-eabi-10.3-2021.07/bin/../lib/gcc/arm-none-eabi/10.3.1/../../../../arm-none-eabi/lib/thumb/v7e-m/nofp/libc.a(lib_a-ctype_.o)
                              /opt/gcc-arm-none-eabi-10.3-2021.07/bin/../lib/gcc/arm-none-eabi/10.3.1/../../../../arm-none-eabi/lib/thumb/v7e-m/nofp/libc.a(lib_a-locale.o) (_ctype_)
/opt/gcc-arm-none-eabi-10.3-2021.07/bin/../lib/gcc/arm-none-eabi/10.3.1/../../../../arm-none-eabi/lib/thumb/v7e-m/nofp/libc.a(lib_a-signal.o)
                              /opt/gcc-arm-none-eabi-10.3-2021.07/bin/../lib/gcc/arm-none-eabi/10.3.1/../../../../arm-none-eabi/lib/thumb/v7e-m/nofp/libc.a(lib_a-abort.o) (raise)
/opt/gcc-arm-none-eabi-10.3-2021.07/bin/../lib/gcc/arm-none-eabi/10.3.1/../../../../arm-none-eabi/lib/thumb/v7e-m/nofp/libc.a(lib_a-signalr.o)
                              /opt/gcc-arm-none-eabi-10.3-2021.07/bin/../lib/gcc/arm-none-eabi/10.3.1/../../../../arm-none-eabi/lib/thumb/v7e-m/nofp/libc.a(lib_a-signal.o) (_kill_r)
/opt/gcc-arm-none-eabi-10.3-2021.07/bin/../lib/gcc/arm-none-eabi/10.3.1/thumb/v7e-m/nofp/libgcc.a(_arm_muldf3.o)
                              build/machines/cortex/armv7em/stm32f303/coroLabBoard/tft/arduinoCore/Print.cpp.o (__aeabi_dmul)
/opt/gcc-arm-none-eabi-10.3-2021.07/bin/../lib/gcc/arm-none-eabi/10.3.1/thumb/v7e-m/nofp/libgcc.a(_arm_addsubdf3.o)
                              build/machines/cortex/armv7em/stm32f303/coroLabBoard/tft/arduinoCore/Print.cpp.o (__aeabi_dsub)
/opt/gcc-arm-none-eabi-10.3-2021.07/bin/../lib/gcc/arm-none-eabi/10.3.1/thumb/v7e-m/nofp/libgcc.a(_arm_muldivdf3.o)
                              build/machines/cortex/armv7em/stm32f303/coroLabBoard/tft/arduinoCore/Print.cpp.o (__aeabi_ddiv)
/opt/gcc-arm-none-eabi-10.3-2021.07/bin/../lib/gcc/arm-none-eabi/10.3.1/thumb/v7e-m/nofp/libgcc.a(_arm_cmpdf2.o)
                              /opt/gcc-arm-none-eabi-10.3-2021.07/bin/../lib/gcc/arm-none-eabi/10.3.1/../../../../arm-none-eabi/lib/thumb/v7e-m/nofp/libc.a(lib_a-vfprintf.o) (__aeabi_dcmpeq)
/opt/gcc-arm-none-eabi-10.3-2021.07/bin/../lib/gcc/arm-none-eabi/10.3.1/thumb/v7e-m/nofp/libgcc.a(_arm_unorddf2.o)
                              build/machines/cortex/armv7em/stm32f303/coroLabBoard/tft/arduinoCore/Print.cpp.o (__aeabi_dcmpun)
/opt/gcc-arm-none-eabi-10.3-2021.07/bin/../lib/gcc/arm-none-eabi/10.3.1/thumb/v7e-m/nofp/libgcc.a(_arm_fixdfsi.o)
                              build/machines/cortex/armv7em/stm32f303/coroLabBoard/tft/arduinoCore/Print.cpp.o (__aeabi_d2iz)
/opt/gcc-arm-none-eabi-10.3-2021.07/bin/../lib/gcc/arm-none-eabi/10.3.1/thumb/v7e-m/nofp/libgcc.a(_arm_fixunsdfsi.o)
                              build/machines/cortex/armv7em/stm32f303/coroLabBoard/tft/arduinoCore/Print.cpp.o (__aeabi_d2uiz)
/opt/gcc-arm-none-eabi-10.3-2021.07/bin/../lib/gcc/arm-none-eabi/10.3.1/thumb/v7e-m/nofp/libgcc.a(_aeabi_uldivmod.o)
                              build/machines/cortex/armv7em/stm32f303/coroLabBoard/tft/arduinoCore/Print.cpp.o (__aeabi_uldivmod)
/opt/gcc-arm-none-eabi-10.3-2021.07/bin/../lib/gcc/arm-none-eabi/10.3.1/thumb/v7e-m/nofp/libgcc.a(_udivmoddi4.o)
                              /opt/gcc-arm-none-eabi-10.3-2021.07/bin/../lib/gcc/arm-none-eabi/10.3.1/thumb/v7e-m/nofp/libgcc.a(_aeabi_uldivmod.o) (__udivmoddi4)
/opt/gcc-arm-none-eabi-10.3-2021.07/bin/../lib/gcc/arm-none-eabi/10.3.1/thumb/v7e-m/nofp/libgcc.a(_dvmd_tls.o)
                              /opt/gcc-arm-none-eabi-10.3-2021.07/bin/../lib/gcc/arm-none-eabi/10.3.1/thumb/v7e-m/nofp/libgcc.a(_aeabi_uldivmod.o) (__aeabi_ldiv0)

Discarded input sections

 .text          0x0000000000000000        0x0 build/os/tpl_os_kernel.c.o
 .data          0x0000000000000000        0x0 build/os/tpl_os_kernel.c.o
 .bss           0x0000000000000000        0x0 build/os/tpl_os_kernel.c.o
 .osVar         0x0000000000000000        0x3 build/os/tpl_os_kernel.c.o
 .text          0x0000000000000000        0x0 build/os/tpl_os_timeobj_kernel.c.o
 .data          0x0000000000000000        0x0 build/os/tpl_os_timeobj_kernel.c.o
 .bss           0x0000000000000000        0x0 build/os/tpl_os_timeobj_kernel.c.o
 .text          0x0000000000000000        0x0 build/os/tpl_os_action.c.o
 .data          0x0000000000000000        0x0 build/os/tpl_os_action.c.o
 .bss           0x0000000000000000        0x0 build/os/tpl_os_action.c.o
 .osCode        0x0000000000000000       0x3a build/os/tpl_os_action.c.o
 .debug_info    0x0000000000000000      0x1e0 build/os/tpl_os_action.c.o
 .debug_abbrev  0x0000000000000000       0xda build/os/tpl_os_action.c.o
 .debug_aranges
                0x0000000000000000       0x28 build/os/tpl_os_action.c.o
 .debug_ranges  0x0000000000000000       0x18 build/os/tpl_os_action.c.o
 .debug_line    0x0000000000000000       0xfe build/os/tpl_os_action.c.o
 .debug_str     0x0000000000000000      0x2bd build/os/tpl_os_action.c.o
 .comment       0x0000000000000000       0x4a build/os/tpl_os_action.c.o
 .debug_frame   0x0000000000000000       0x58 build/os/tpl_os_action.c.o
 .ARM.attributes
                0x0000000000000000       0x2e build/os/tpl_os_action.c.o
 .text          0x0000000000000000        0x0 build/os/tpl_os_error.c.o
 .data          0x0000000000000000        0x0 build/os/tpl_os_error.c.o
 .bss           0x0000000000000000        0x0 build/os/tpl_os_error.c.o
 .debug_info    0x0000000000000000       0x64 build/os/tpl_os_error.c.o
 .debug_abbrev  0x0000000000000000       0x26 build/os/tpl_os_error.c.o
 .debug_aranges
                0x0000000000000000       0x18 build/os/tpl_os_error.c.o
 .debug_line    0x0000000000000000       0x1d build/os/tpl_os_error.c.o
 .debug_str     0x0000000000000000      0x192 build/os/tpl_os_error.c.o
 .comment       0x0000000000000000       0x4a build/os/tpl_os_error.c.o
 .ARM.attributes
                0x0000000000000000       0x37 build/os/tpl_os_error.c.o
 .text          0x0000000000000000        0x0 build/os/tpl_os_os_kernel.c.o
 .data          0x0000000000000000        0x0 build/os/tpl_os_os_kernel.c.o
 .bss           0x0000000000000000        0x0 build/os/tpl_os_os_kernel.c.o
 .text          0x0000000000000000        0x0 build/os/tpl_os_os.c.o
 .data          0x0000000000000000        0x0 build/os/tpl_os_os.c.o
 .bss           0x0000000000000000        0x0 build/os/tpl_os_os.c.o
 .text          0x0000000000000000        0x0 build/os/tpl_os_interrupt_kernel.c.o
 .data          0x0000000000000000        0x0 build/os/tpl_os_interrupt_kernel.c.o
 .bss           0x0000000000000000        0x0 build/os/tpl_os_interrupt_kernel.c.o
 .text          0x0000000000000000        0x0 build/os/tpl_os_task_kernel.c.o
 .data          0x0000000000000000        0x0 build/os/tpl_os_task_kernel.c.o
 .bss           0x0000000000000000        0x0 build/os/tpl_os_task_kernel.c.o
 .text          0x0000000000000000        0x0 build/os/tpl_os_resource_kernel.c.o
 .data          0x0000000000000000        0x0 build/os/tpl_os_resource_kernel.c.o
 .bss           0x0000000000000000        0x0 build/os/tpl_os_resource_kernel.c.o
 .osConst       0x0000000000000000        0x2 build/os/tpl_os_resource_kernel.c.o
 .text          0x0000000000000000        0x0 build/lab1/tpl_app_config.c.o
 .data          0x0000000000000000        0x0 build/lab1/tpl_app_config.c.o
 .bss           0x0000000000000000        0x0 build/lab1/tpl_app_config.c.o
 .rodata.AppStd
                0x0000000000000000        0x1 build/lab1/tpl_app_config.c.o
 .text          0x0000000000000000        0x0 build/lab1/tpl_dispatch_table.c.o
 .data          0x0000000000000000        0x0 build/lab1/tpl_dispatch_table.c.o
 .bss           0x0000000000000000        0x0 build/lab1/tpl_dispatch_table.c.o
 .text          0x0000000000000000        0x0 build/lab1/tpl_invoque.S.o
 .data          0x0000000000000000        0x0 build/lab1/tpl_invoque.S.o
 .bss           0x0000000000000000        0x0 build/lab1/tpl_invoque.S.o
 .text          0x0000000000000000        0x0 build/lab1/tpl_primary_irq.S.o
 .data          0x0000000000000000        0x0 build/lab1/tpl_primary_irq.S.o
 .bss           0x0000000000000000        0x0 build/lab1/tpl_primary_irq.S.o
 .osVar         0x0000000000000000        0x0 build/lab1/tpl_primary_irq.S.o
 .text          0x0000000000000000        0x0 build/lab1/tpl_vectors.c.o
 .data          0x0000000000000000        0x0 build/lab1/tpl_vectors.c.o
 .bss           0x0000000000000000        0x0 build/lab1/tpl_vectors.c.o
 .text          0x0000000000000000        0x0 build/lab1/tpl_external_interrupts.c.o
 .data          0x0000000000000000        0x0 build/lab1/tpl_external_interrupts.c.o
 .bss           0x0000000000000000        0x0 build/lab1/tpl_external_interrupts.c.o
 .text          0x0000000000000000        0x0 build/lab1/tpl_app_interrupts.c.o
 .data          0x0000000000000000        0x0 build/lab1/tpl_app_interrupts.c.o
 .bss           0x0000000000000000        0x0 build/lab1/tpl_app_interrupts.c.o
 .text          0x0000000000000000        0x0 build/machines/cortex/tpl_machine_cortex.c.o
 .data          0x0000000000000000        0x0 build/machines/cortex/tpl_machine_cortex.c.o
 .bss           0x0000000000000000        0x0 build/machines/cortex/tpl_machine_cortex.c.o
 .bss.tpl_isr2_disabled
                0x0000000000000000        0x1 build/machines/cortex/tpl_machine_cortex.c.o
 .text          0x0000000000000000        0x0 build/machines/cortex/tpl_sc_handler.S.o
 .data          0x0000000000000000        0x0 build/machines/cortex/tpl_sc_handler.S.o
 .bss           0x0000000000000000        0x0 build/machines/cortex/tpl_sc_handler.S.o
 .osVar         0x0000000000000000        0x0 build/machines/cortex/tpl_sc_handler.S.o
 .osConst       0x0000000000000000        0x0 build/machines/cortex/tpl_sc_handler.S.o
 .text          0x0000000000000000        0x0 build/machines/cortex/tpl_startup.S.o
 .data          0x0000000000000000        0x0 build/machines/cortex/tpl_startup.S.o
 .bss           0x0000000000000000        0x0 build/machines/cortex/tpl_startup.S.o
 .text          0x0000000000000000        0x0 build/machines/cortex/armv7em/tpl_ctx_switch.S.o
 .data          0x0000000000000000        0x0 build/machines/cortex/armv7em/tpl_ctx_switch.S.o
 .bss           0x0000000000000000        0x0 build/machines/cortex/armv7em/tpl_ctx_switch.S.o
 .text          0x0000000000000000        0x0 build/machines/cortex/armv7em/tpl_ctx_switch_under_it.S.o
 .data          0x0000000000000000        0x0 build/machines/cortex/armv7em/tpl_ctx_switch_under_it.S.o
 .bss           0x0000000000000000        0x0 build/machines/cortex/armv7em/tpl_ctx_switch_under_it.S.o
 .text          0x0000000000000000        0x0 build/machines/cortex/armv7em/tpl_interrupts.S.o
 .data          0x0000000000000000        0x0 build/machines/cortex/armv7em/tpl_interrupts.S.o
 .bss           0x0000000000000000        0x0 build/machines/cortex/armv7em/tpl_interrupts.S.o
 .text          0x0000000000000000        0x0 build/machines/cortex/armv7em/stm32f303/handlers_stm32f3xx.c.o
 .data          0x0000000000000000        0x0 build/machines/cortex/armv7em/stm32f303/handlers_stm32f3xx.c.o
 .bss           0x0000000000000000        0x0 build/machines/cortex/armv7em/stm32f303/handlers_stm32f3xx.c.o
 .text.PendSV_Handler
                0x0000000000000000        0x6 build/machines/cortex/armv7em/stm32f303/handlers_stm32f3xx.c.o
 .text.SysTick_ClearFlag
                0x0000000000000000        0xc build/machines/cortex/armv7em/stm32f303/handlers_stm32f3xx.c.o
 .text          0x0000000000000000        0x0 build/machines/cortex/armv7em/stm32f303/startup_stm32f3xx.c.o
 .data          0x0000000000000000        0x0 build/machines/cortex/armv7em/stm32f303/startup_stm32f3xx.c.o
 .bss           0x0000000000000000        0x0 build/machines/cortex/armv7em/stm32f303/startup_stm32f3xx.c.o
 .text.assert_failed
                0x0000000000000000        0x2 build/machines/cortex/armv7em/stm32f303/startup_stm32f3xx.c.o
 .text          0x0000000000000000        0x0 build/machines/cortex/armv7em/stm32f303/system_stm32f30x.c.o
 .data          0x0000000000000000        0x0 build/machines/cortex/armv7em/stm32f303/system_stm32f30x.c.o
 .bss           0x0000000000000000        0x0 build/machines/cortex/armv7em/stm32f303/system_stm32f30x.c.o
 .rodata.APBPrescTable
                0x0000000000000000        0x8 build/machines/cortex/armv7em/stm32f303/system_stm32f30x.c.o
 .text          0x0000000000000000        0x0 build/machines/cortex/armv7em/stm32f303/tpl_machine_stm32f303.c.o
 .data          0x0000000000000000        0x0 build/machines/cortex/armv7em/stm32f303/tpl_machine_stm32f303.c.o
 .bss           0x0000000000000000        0x0 build/machines/cortex/armv7em/stm32f303/tpl_machine_stm32f303.c.o
 .text          0x0000000000000000        0x0 build/machines/cortex/armv7em/stm32f303/tpl_memory_protection.c.o
 .data          0x0000000000000000        0x0 build/machines/cortex/armv7em/stm32f303/tpl_memory_protection.c.o
 .bss           0x0000000000000000        0x0 build/machines/cortex/armv7em/stm32f303/tpl_memory_protection.c.o
 .debug_info    0x0000000000000000       0x64 build/machines/cortex/armv7em/stm32f303/tpl_memory_protection.c.o
 .debug_abbrev  0x0000000000000000       0x26 build/machines/cortex/armv7em/stm32f303/tpl_memory_protection.c.o
 .debug_aranges
                0x0000000000000000       0x18 build/machines/cortex/armv7em/stm32f303/tpl_memory_protection.c.o
 .debug_line    0x0000000000000000       0x1d build/machines/cortex/armv7em/stm32f303/tpl_memory_protection.c.o
 .debug_str     0x0000000000000000      0x1ba build/machines/cortex/armv7em/stm32f303/tpl_memory_protection.c.o
 .comment       0x0000000000000000       0x4a build/machines/cortex/armv7em/stm32f303/tpl_memory_protection.c.o
 .ARM.attributes
                0x0000000000000000       0x37 build/machines/cortex/armv7em/stm32f303/tpl_memory_protection.c.o
 .text          0x0000000000000000        0x0 build/machines/cortex/armv7em/stm32f303/lib/pinAccess.c.o
 .data          0x0000000000000000        0x0 build/machines/cortex/armv7em/stm32f303/lib/pinAccess.c.o
 .bss           0x0000000000000000        0x0 build/machines/cortex/armv7em/stm32f303/lib/pinAccess.c.o
 .text.digitalWrite
                0x0000000000000000       0x40 build/machines/cortex/armv7em/stm32f303/lib/pinAccess.c.o
 .text.digitalToggle
                0x0000000000000000       0x48 build/machines/cortex/armv7em/stm32f303/lib/pinAccess.c.o
 .text.digitalRead
                0x0000000000000000       0x44 build/machines/cortex/armv7em/stm32f303/lib/pinAccess.c.o
 .text.pinAlt   0x0000000000000000       0x84 build/machines/cortex/armv7em/stm32f303/lib/pinAccess.c.o
 .text.pinAnalog
                0x0000000000000000       0x50 build/machines/cortex/armv7em/stm32f303/lib/pinAccess.c.o
 .text          0x0000000000000000        0x0 build/machines/cortex/armv7em/stm32f303/tpl_trace.c.o
 .data          0x0000000000000000        0x0 build/machines/cortex/armv7em/stm32f303/tpl_trace.c.o
 .bss           0x0000000000000000        0x0 build/machines/cortex/armv7em/stm32f303/tpl_trace.c.o
 .debug_info    0x0000000000000000       0x64 build/machines/cortex/armv7em/stm32f303/tpl_trace.c.o
 .debug_abbrev  0x0000000000000000       0x26 build/machines/cortex/armv7em/stm32f303/tpl_trace.c.o
 .debug_aranges
                0x0000000000000000       0x18 build/machines/cortex/armv7em/stm32f303/tpl_trace.c.o
 .debug_line    0x0000000000000000       0x1d build/machines/cortex/armv7em/stm32f303/tpl_trace.c.o
 .debug_str     0x0000000000000000      0x1ae build/machines/cortex/armv7em/stm32f303/tpl_trace.c.o
 .comment       0x0000000000000000       0x4a build/machines/cortex/armv7em/stm32f303/tpl_trace.c.o
 .ARM.attributes
                0x0000000000000000       0x37 build/machines/cortex/armv7em/stm32f303/tpl_trace.c.o
 .text          0x0000000000000000        0x0 build/machines/cortex/armv7em/stm32f303/coroLabBoard/spi.c.o
 .data          0x0000000000000000        0x0 build/machines/cortex/armv7em/stm32f303/coroLabBoard/spi.c.o
 .bss           0x0000000000000000        0x0 build/machines/cortex/armv7em/stm32f303/coroLabBoard/spi.c.o
 .text          0x0000000000000000        0x0 build/lab1.cpp.o
 .data          0x0000000000000000        0x0 build/lab1.cpp.o
 .bss           0x0000000000000000        0x0 build/lab1.cpp.o
 .text          0x0000000000000000        0x0 build/machines/cortex/armv7em/stm32f303/coroLabBoard/mcp23s17.cpp.o
 .data          0x0000000000000000        0x0 build/machines/cortex/armv7em/stm32f303/coroLabBoard/mcp23s17.cpp.o
 .bss           0x0000000000000000        0x0 build/machines/cortex/armv7em/stm32f303/coroLabBoard/mcp23s17.cpp.o
 .text._ZN8mcp23s1711digitalReadENS_4portEh
                0x0000000000000000       0x4a build/machines/cortex/armv7em/stm32f303/coroLabBoard/mcp23s17.cpp.o
 .text._ZN8mcp23s1713digitalToggleENS_4portEh
                0x0000000000000000       0x52 build/machines/cortex/armv7em/stm32f303/coroLabBoard/mcp23s17.cpp.o
 .text._ZN8mcp23s177setBitsENS_4portEh
                0x0000000000000000       0x3e build/machines/cortex/armv7em/stm32f303/coroLabBoard/mcp23s17.cpp.o
 .text._ZN8mcp23s179clearBitsENS_4portEh
                0x0000000000000000       0x48 build/machines/cortex/armv7em/stm32f303/coroLabBoard/mcp23s17.cpp.o
 .text._ZN8mcp23s179writeBitsENS_4portEh
                0x0000000000000000       0x34 build/machines/cortex/armv7em/stm32f303/coroLabBoard/mcp23s17.cpp.o
 .text._ZN8mcp23s178readBitsENS_4portE
                0x0000000000000000       0x24 build/machines/cortex/armv7em/stm32f303/coroLabBoard/mcp23s17.cpp.o
 .text._ZN8mcp23s1715detachInterruptENS_4portEh
                0x0000000000000000       0x44 build/machines/cortex/armv7em/stm32f303/coroLabBoard/mcp23s17.cpp.o
 .text._ZN8mcp23s1712getInterruptEv
                0x0000000000000000       0x3c build/machines/cortex/armv7em/stm32f303/coroLabBoard/mcp23s17.cpp.o
 .text          0x0000000000000000        0x0 build/machines/cortex/armv7em/stm32f303/coroLabBoard/coroBoard.cpp.o
 .data          0x0000000000000000        0x0 build/machines/cortex/armv7em/stm32f303/coroLabBoard/coroBoard.cpp.o
 .bss           0x0000000000000000        0x0 build/machines/cortex/armv7em/stm32f303/coroLabBoard/coroBoard.cpp.o
 .text._Z10resetTimerv
                0x0000000000000000       0x18 build/machines/cortex/armv7em/stm32f303/coroLabBoard/coroBoard.cpp.o
 .text._Z13getTimerValuev
                0x0000000000000000       0x14 build/machines/cortex/armv7em/stm32f303/coroLabBoard/coroBoard.cpp.o
 .group         0x0000000000000000        0xc build/machines/cortex/armv7em/stm32f303/coroLabBoard/tft/arduinoCore/Print.cpp.o
 .group         0x0000000000000000        0xc build/machines/cortex/armv7em/stm32f303/coroLabBoard/tft/arduinoCore/Print.cpp.o
 .group         0x0000000000000000        0xc build/machines/cortex/armv7em/stm32f303/coroLabBoard/tft/arduinoCore/Print.cpp.o
 .text          0x0000000000000000        0x0 build/machines/cortex/armv7em/stm32f303/coroLabBoard/tft/arduinoCore/Print.cpp.o
 .data          0x0000000000000000        0x0 build/machines/cortex/armv7em/stm32f303/coroLabBoard/tft/arduinoCore/Print.cpp.o
 .bss           0x0000000000000000        0x0 build/machines/cortex/armv7em/stm32f303/coroLabBoard/tft/arduinoCore/Print.cpp.o
 .text._ZSt5isinfd
                0x0000000000000000       0x60 build/machines/cortex/armv7em/stm32f303/coroLabBoard/tft/arduinoCore/Print.cpp.o
 .text._ZSt5isnand
                0x0000000000000000       0x38 build/machines/cortex/armv7em/stm32f303/coroLabBoard/tft/arduinoCore/Print.cpp.o
 .text._ZN5Print5writeEPKc
                0x0000000000000000       0x38 build/machines/cortex/armv7em/stm32f303/coroLabBoard/tft/arduinoCore/Print.cpp.o
 .text._ZN5Print5printEPKc
                0x0000000000000000       0x1c build/machines/cortex/armv7em/stm32f303/coroLabBoard/tft/arduinoCore/Print.cpp.o
 .text._ZN5Print5printEc
                0x0000000000000000       0x24 build/machines/cortex/armv7em/stm32f303/coroLabBoard/tft/arduinoCore/Print.cpp.o
 .text._ZN5Print5printEhi
                0x0000000000000000       0x24 build/machines/cortex/armv7em/stm32f303/coroLabBoard/tft/arduinoCore/Print.cpp.o
 .text._ZN5Print5printEii
                0x0000000000000000       0x20 build/machines/cortex/armv7em/stm32f303/coroLabBoard/tft/arduinoCore/Print.cpp.o
 .text._ZN5Print5printEji
                0x0000000000000000       0x20 build/machines/cortex/armv7em/stm32f303/coroLabBoard/tft/arduinoCore/Print.cpp.o
 .text._ZN5Print5printEli
                0x0000000000000000       0x82 build/machines/cortex/armv7em/stm32f303/coroLabBoard/tft/arduinoCore/Print.cpp.o
 .text._ZN5Print5printEmi
                0x0000000000000000       0x40 build/machines/cortex/armv7em/stm32f303/coroLabBoard/tft/arduinoCore/Print.cpp.o
 .text._ZN5Print5printEdi
                0x0000000000000000       0x26 build/machines/cortex/armv7em/stm32f303/coroLabBoard/tft/arduinoCore/Print.cpp.o
 .text._ZN5Print5printERK9Printable
                0x0000000000000000       0x20 build/machines/cortex/armv7em/stm32f303/coroLabBoard/tft/arduinoCore/Print.cpp.o
 .rodata        0x0000000000000000       0x12 build/machines/cortex/armv7em/stm32f303/coroLabBoard/tft/arduinoCore/Print.cpp.o
 .text._ZN5Print7printlnEv
                0x0000000000000000       0x20 build/machines/cortex/armv7em/stm32f303/coroLabBoard/tft/arduinoCore/Print.cpp.o
 .text._ZN5Print7printlnEPKc
                0x0000000000000000       0x2c build/machines/cortex/armv7em/stm32f303/coroLabBoard/tft/arduinoCore/Print.cpp.o
 .text._ZN5Print7printlnEc
                0x0000000000000000       0x30 build/machines/cortex/armv7em/stm32f303/coroLabBoard/tft/arduinoCore/Print.cpp.o
 .text._ZN5Print7printlnEhi
                0x0000000000000000       0x34 build/machines/cortex/armv7em/stm32f303/coroLabBoard/tft/arduinoCore/Print.cpp.o
 .text._ZN5Print7printlnEii
                0x0000000000000000       0x30 build/machines/cortex/armv7em/stm32f303/coroLabBoard/tft/arduinoCore/Print.cpp.o
 .text._ZN5Print7printlnEji
                0x0000000000000000       0x30 build/machines/cortex/armv7em/stm32f303/coroLabBoard/tft/arduinoCore/Print.cpp.o
 .text._ZN5Print7printlnEli
                0x0000000000000000       0x30 build/machines/cortex/armv7em/stm32f303/coroLabBoard/tft/arduinoCore/Print.cpp.o
 .text._ZN5Print7printlnEmi
                0x0000000000000000       0x30 build/machines/cortex/armv7em/stm32f303/coroLabBoard/tft/arduinoCore/Print.cpp.o
 .text._ZN5Print7printlnEdi
                0x0000000000000000       0x34 build/machines/cortex/armv7em/stm32f303/coroLabBoard/tft/arduinoCore/Print.cpp.o
 .text._ZN5Print7printlnERK9Printable
                0x0000000000000000       0x2c build/machines/cortex/armv7em/stm32f303/coroLabBoard/tft/arduinoCore/Print.cpp.o
 .text._ZN5Print11printNumberEmh
                0x0000000000000000       0x88 build/machines/cortex/armv7em/stm32f303/coroLabBoard/tft/arduinoCore/Print.cpp.o
 .text._ZN5Print10printFloatEdh
                0x0000000000000000      0x1ec build/machines/cortex/armv7em/stm32f303/coroLabBoard/tft/arduinoCore/Print.cpp.o
 .text._ZN5Print7printlnExh
                0x0000000000000000       0x28 build/machines/cortex/armv7em/stm32f303/coroLabBoard/tft/arduinoCore/Print.cpp.o
 .text._ZN5Print5printExh
                0x0000000000000000       0x52 build/machines/cortex/armv7em/stm32f303/coroLabBoard/tft/arduinoCore/Print.cpp.o
 .text._ZN5Print7printlnEyh
                0x0000000000000000       0x28 build/machines/cortex/armv7em/stm32f303/coroLabBoard/tft/arduinoCore/Print.cpp.o
 .text._ZN5Print5printEyh
                0x0000000000000000       0x2c build/machines/cortex/armv7em/stm32f303/coroLabBoard/tft/arduinoCore/Print.cpp.o
 .text._ZN5Print13printLLNumberEyh
                0x0000000000000000       0xc6 build/machines/cortex/armv7em/stm32f303/coroLabBoard/tft/arduinoCore/Print.cpp.o
 .group         0x0000000000000000        0xc build/machines/cortex/armv7em/stm32f303/coroLabBoard/tft/tft.cpp.o
 .group         0x0000000000000000        0xc build/machines/cortex/armv7em/stm32f303/coroLabBoard/tft/tft.cpp.o
 .group         0x0000000000000000        0xc build/machines/cortex/armv7em/stm32f303/coroLabBoard/tft/tft.cpp.o
 .text          0x0000000000000000        0x0 build/machines/cortex/armv7em/stm32f303/coroLabBoard/tft/tft.cpp.o
 .data          0x0000000000000000        0x0 build/machines/cortex/armv7em/stm32f303/coroLabBoard/tft/tft.cpp.o
 .bss           0x0000000000000000        0x0 build/machines/cortex/armv7em/stm32f303/coroLabBoard/tft/tft.cpp.o
 .text._ZN3tft13setTextCursorEjj
                0x0000000000000000       0x60 build/machines/cortex/armv7em/stm32f303/coroLabBoard/tft/tft.cpp.o
 .text._ZN3tft12getTextWidthEv
                0x0000000000000000       0x30 build/machines/cortex/armv7em/stm32f303/coroLabBoard/tft/tft.cpp.o
 .text._ZN3tft13getTextHeightEv
                0x0000000000000000       0x30 build/machines/cortex/armv7em/stm32f303/coroLabBoard/tft/tft.cpp.o
 .text._ZN3tft9eraseTextEj
                0x0000000000000000       0x8e build/machines/cortex/armv7em/stm32f303/coroLabBoard/tft/tft.cpp.o
 .text          0x0000000000000000        0x0 build/machines/cortex/armv7em/stm32f303/coroLabBoard/tft/Adafruit-ST7735-Library/Adafruit_ST7735.cpp.o
 .data          0x0000000000000000        0x0 build/machines/cortex/armv7em/stm32f303/coroLabBoard/tft/Adafruit-ST7735-Library/Adafruit_ST7735.cpp.o
 .bss           0x0000000000000000        0x0 build/machines/cortex/armv7em/stm32f303/coroLabBoard/tft/Adafruit-ST7735-Library/Adafruit_ST7735.cpp.o
 .rodata._ZL4Bcmd
                0x0000000000000000       0x67 build/machines/cortex/armv7em/stm32f303/coroLabBoard/tft/Adafruit-ST7735-Library/Adafruit_ST7735.cpp.o
 .text._ZN15Adafruit_ST77355initBEv
                0x0000000000000000       0x2c build/machines/cortex/armv7em/stm32f303/coroLabBoard/tft/Adafruit-ST7735-Library/Adafruit_ST7735.cpp.o
 .text          0x0000000000000000        0x0 build/machines/cortex/armv7em/stm32f303/coroLabBoard/tft/Adafruit-ST7735-Library/Adafruit_ST77xx.cpp.o
 .data          0x0000000000000000        0x0 build/machines/cortex/armv7em/stm32f303/coroLabBoard/tft/Adafruit-ST7735-Library/Adafruit_ST77xx.cpp.o
 .bss           0x0000000000000000        0x0 build/machines/cortex/armv7em/stm32f303/coroLabBoard/tft/Adafruit-ST7735-Library/Adafruit_ST77xx.cpp.o
 .text._ZN15Adafruit_ST77xx14setColRowStartEaa
                0x0000000000000000       0x2a build/machines/cortex/armv7em/stm32f303/coroLabBoard/tft/Adafruit-ST7735-Library/Adafruit_ST77xx.cpp.o
 .group         0x0000000000000000        0xc build/machines/cortex/armv7em/stm32f303/coroLabBoard/tft/Adafruit-GFX-Library/Adafruit_GFX.cpp.o
 .text          0x0000000000000000        0x0 build/machines/cortex/armv7em/stm32f303/coroLabBoard/tft/Adafruit-GFX-Library/Adafruit_GFX.cpp.o
 .data          0x0000000000000000        0x0 build/machines/cortex/armv7em/stm32f303/coroLabBoard/tft/Adafruit-GFX-Library/Adafruit_GFX.cpp.o
 .bss           0x0000000000000000        0x0 build/machines/cortex/armv7em/stm32f303/coroLabBoard/tft/Adafruit-GFX-Library/Adafruit_GFX.cpp.o
 .text._ZN12Adafruit_GFX10drawCircleEssst
                0x0000000000000000      0x232 build/machines/cortex/armv7em/stm32f303/coroLabBoard/tft/Adafruit-GFX-Library/Adafruit_GFX.cpp.o
 .text._ZN12Adafruit_GFX16drawCircleHelperEsssht
                0x0000000000000000      0x1dc build/machines/cortex/armv7em/stm32f303/coroLabBoard/tft/Adafruit-GFX-Library/Adafruit_GFX.cpp.o
 .text._ZN12Adafruit_GFX10fillCircleEssst
                0x0000000000000000       0x86 build/machines/cortex/armv7em/stm32f303/coroLabBoard/tft/Adafruit-GFX-Library/Adafruit_GFX.cpp.o
 .text._ZN12Adafruit_GFX16fillCircleHelperEssshst
                0x0000000000000000      0x19a build/machines/cortex/armv7em/stm32f303/coroLabBoard/tft/Adafruit-GFX-Library/Adafruit_GFX.cpp.o
 .text._ZN12Adafruit_GFX13drawRoundRectEssssst
                0x0000000000000000      0x1d4 build/machines/cortex/armv7em/stm32f303/coroLabBoard/tft/Adafruit-GFX-Library/Adafruit_GFX.cpp.o
 .text._ZN12Adafruit_GFX13fillRoundRectEssssst
                0x0000000000000000       0xf4 build/machines/cortex/armv7em/stm32f303/coroLabBoard/tft/Adafruit-GFX-Library/Adafruit_GFX.cpp.o
 .text._ZN12Adafruit_GFX12drawTriangleEsssssst
                0x0000000000000000       0x8e build/machines/cortex/armv7em/stm32f303/coroLabBoard/tft/Adafruit-GFX-Library/Adafruit_GFX.cpp.o
 .text._ZN12Adafruit_GFX12fillTriangleEsssssst
                0x0000000000000000      0x316 build/machines/cortex/armv7em/stm32f303/coroLabBoard/tft/Adafruit-GFX-Library/Adafruit_GFX.cpp.o
 .text._ZN12Adafruit_GFX10drawBitmapEssPKhsst
                0x0000000000000000       0xea build/machines/cortex/armv7em/stm32f303/coroLabBoard/tft/Adafruit-GFX-Library/Adafruit_GFX.cpp.o
 .text._ZN12Adafruit_GFX10drawBitmapEssPKhsstt
                0x0000000000000000       0xee build/machines/cortex/armv7em/stm32f303/coroLabBoard/tft/Adafruit-GFX-Library/Adafruit_GFX.cpp.o
 .text._ZN12Adafruit_GFX10drawBitmapEssPhsst
                0x0000000000000000       0xea build/machines/cortex/armv7em/stm32f303/coroLabBoard/tft/Adafruit-GFX-Library/Adafruit_GFX.cpp.o
 .text._ZN12Adafruit_GFX10drawBitmapEssPhsstt
                0x0000000000000000       0xee build/machines/cortex/armv7em/stm32f303/coroLabBoard/tft/Adafruit-GFX-Library/Adafruit_GFX.cpp.o
 .text._ZN12Adafruit_GFX11drawXBitmapEssPKhsst
                0x0000000000000000       0xec build/machines/cortex/armv7em/stm32f303/coroLabBoard/tft/Adafruit-GFX-Library/Adafruit_GFX.cpp.o
 .text._ZN12Adafruit_GFX19drawGrayscaleBitmapEssPKhss
                0x0000000000000000       0xb0 build/machines/cortex/armv7em/stm32f303/coroLabBoard/tft/Adafruit-GFX-Library/Adafruit_GFX.cpp.o
 .text._ZN12Adafruit_GFX19drawGrayscaleBitmapEssPhss
                0x0000000000000000       0xb0 build/machines/cortex/armv7em/stm32f303/coroLabBoard/tft/Adafruit-GFX-Library/Adafruit_GFX.cpp.o
 .text._ZN12Adafruit_GFX19drawGrayscaleBitmapEssPKhS1_ss
                0x0000000000000000      0x104 build/machines/cortex/armv7em/stm32f303/coroLabBoard/tft/Adafruit-GFX-Library/Adafruit_GFX.cpp.o
 .text._ZN12Adafruit_GFX19drawGrayscaleBitmapEssPhS0_ss
                0x0000000000000000      0x104 build/machines/cortex/armv7em/stm32f303/coroLabBoard/tft/Adafruit-GFX-Library/Adafruit_GFX.cpp.o
 .text._ZN12Adafruit_GFX13drawRGBBitmapEssPKtss
                0x0000000000000000       0xae build/machines/cortex/armv7em/stm32f303/coroLabBoard/tft/Adafruit-GFX-Library/Adafruit_GFX.cpp.o
 .text._ZN12Adafruit_GFX13drawRGBBitmapEssPtss
                0x0000000000000000       0xae build/machines/cortex/armv7em/stm32f303/coroLabBoard/tft/Adafruit-GFX-Library/Adafruit_GFX.cpp.o
 .text._ZN12Adafruit_GFX13drawRGBBitmapEssPKtPKhss
                0x0000000000000000      0x102 build/machines/cortex/armv7em/stm32f303/coroLabBoard/tft/Adafruit-GFX-Library/Adafruit_GFX.cpp.o
 .text._ZN12Adafruit_GFX13drawRGBBitmapEssPtPhss
                0x0000000000000000      0x102 build/machines/cortex/armv7em/stm32f303/coroLabBoard/tft/Adafruit-GFX-Library/Adafruit_GFX.cpp.o
 .text._ZNK12Adafruit_GFX10getCursorXEv
                0x0000000000000000       0x18 build/machines/cortex/armv7em/stm32f303/coroLabBoard/tft/Adafruit-GFX-Library/Adafruit_GFX.cpp.o
 .text._ZNK12Adafruit_GFX10getCursorYEv
                0x0000000000000000       0x18 build/machines/cortex/armv7em/stm32f303/coroLabBoard/tft/Adafruit-GFX-Library/Adafruit_GFX.cpp.o
 .text._ZN12Adafruit_GFX11setTextSizeEh
                0x0000000000000000       0x26 build/machines/cortex/armv7em/stm32f303/coroLabBoard/tft/Adafruit-GFX-Library/Adafruit_GFX.cpp.o
 .text._ZN12Adafruit_GFX12setTextColorEtt
                0x0000000000000000       0x26 build/machines/cortex/armv7em/stm32f303/coroLabBoard/tft/Adafruit-GFX-Library/Adafruit_GFX.cpp.o
 .text._ZN12Adafruit_GFX11setTextWrapEb
                0x0000000000000000       0x1c build/machines/cortex/armv7em/stm32f303/coroLabBoard/tft/Adafruit-GFX-Library/Adafruit_GFX.cpp.o
 .text._ZNK12Adafruit_GFX11getRotationEv
                0x0000000000000000       0x16 build/machines/cortex/armv7em/stm32f303/coroLabBoard/tft/Adafruit-GFX-Library/Adafruit_GFX.cpp.o
 .text._ZN12Adafruit_GFX5cp437Eb
                0x0000000000000000       0x1c build/machines/cortex/armv7em/stm32f303/coroLabBoard/tft/Adafruit-GFX-Library/Adafruit_GFX.cpp.o
 .text._ZN12Adafruit_GFX10charBoundsEcPsS0_S0_S0_S0_S0_
                0x0000000000000000      0x336 build/machines/cortex/armv7em/stm32f303/coroLabBoard/tft/Adafruit-GFX-Library/Adafruit_GFX.cpp.o
 .text._ZN12Adafruit_GFX13getTextBoundsEPKcssPsS2_PtS3_
                0x0000000000000000       0xf2 build/machines/cortex/armv7em/stm32f303/coroLabBoard/tft/Adafruit-GFX-Library/Adafruit_GFX.cpp.o
 .text._ZNK12Adafruit_GFX5widthEv
                0x0000000000000000       0x18 build/machines/cortex/armv7em/stm32f303/coroLabBoard/tft/Adafruit-GFX-Library/Adafruit_GFX.cpp.o
 .text._ZNK12Adafruit_GFX6heightEv
                0x0000000000000000       0x18 build/machines/cortex/armv7em/stm32f303/coroLabBoard/tft/Adafruit-GFX-Library/Adafruit_GFX.cpp.o
 .text._ZN19Adafruit_GFX_ButtonC2Ev
                0x0000000000000000       0x1a build/machines/cortex/armv7em/stm32f303/coroLabBoard/tft/Adafruit-GFX-Library/Adafruit_GFX.cpp.o
 .text._ZN19Adafruit_GFX_Button10initButtonEP12Adafruit_GFXsstttttPch
                0x0000000000000000       0x64 build/machines/cortex/armv7em/stm32f303/coroLabBoard/tft/Adafruit-GFX-Library/Adafruit_GFX.cpp.o
 .text._ZN19Adafruit_GFX_Button12initButtonULEP12Adafruit_GFXsstttttPch
                0x0000000000000000       0x64 build/machines/cortex/armv7em/stm32f303/coroLabBoard/tft/Adafruit-GFX-Library/Adafruit_GFX.cpp.o
 .text._ZN19Adafruit_GFX_Button10drawButtonEb
                0x0000000000000000      0x15c build/machines/cortex/armv7em/stm32f303/coroLabBoard/tft/Adafruit-GFX-Library/Adafruit_GFX.cpp.o
 .text._ZN19Adafruit_GFX_Button8containsEss
                0x0000000000000000       0x70 build/machines/cortex/armv7em/stm32f303/coroLabBoard/tft/Adafruit-GFX-Library/Adafruit_GFX.cpp.o
 .text._ZN19Adafruit_GFX_Button5pressEb
                0x0000000000000000       0x24 build/machines/cortex/armv7em/stm32f303/coroLabBoard/tft/Adafruit-GFX-Library/Adafruit_GFX.cpp.o
 .text._ZN19Adafruit_GFX_Button9isPressedEv
                0x0000000000000000       0x16 build/machines/cortex/armv7em/stm32f303/coroLabBoard/tft/Adafruit-GFX-Library/Adafruit_GFX.cpp.o
 .text._ZN19Adafruit_GFX_Button11justPressedEv
                0x0000000000000000       0x2e build/machines/cortex/armv7em/stm32f303/coroLabBoard/tft/Adafruit-GFX-Library/Adafruit_GFX.cpp.o
 .text._ZN19Adafruit_GFX_Button12justReleasedEv
                0x0000000000000000       0x2e build/machines/cortex/armv7em/stm32f303/coroLabBoard/tft/Adafruit-GFX-Library/Adafruit_GFX.cpp.o
 .text._ZN10GFXcanvas1C2Ett
                0x0000000000000000       0x7c build/machines/cortex/armv7em/stm32f303/coroLabBoard/tft/Adafruit-GFX-Library/Adafruit_GFX.cpp.o
 .text._ZN10GFXcanvas1D2Ev
                0x0000000000000000       0x30 build/machines/cortex/armv7em/stm32f303/coroLabBoard/tft/Adafruit-GFX-Library/Adafruit_GFX.cpp.o
 .text._ZN10GFXcanvas19getBufferEv
                0x0000000000000000       0x16 build/machines/cortex/armv7em/stm32f303/coroLabBoard/tft/Adafruit-GFX-Library/Adafruit_GFX.cpp.o
 .text._ZN10GFXcanvas19drawPixelEsst
                0x0000000000000000      0x158 build/machines/cortex/armv7em/stm32f303/coroLabBoard/tft/Adafruit-GFX-Library/Adafruit_GFX.cpp.o
 .text._ZN10GFXcanvas110fillScreenEt
                0x0000000000000000       0x54 build/machines/cortex/armv7em/stm32f303/coroLabBoard/tft/Adafruit-GFX-Library/Adafruit_GFX.cpp.o
 .text._ZN10GFXcanvas8C2Ett
                0x0000000000000000       0x6c build/machines/cortex/armv7em/stm32f303/coroLabBoard/tft/Adafruit-GFX-Library/Adafruit_GFX.cpp.o
 .text._ZN10GFXcanvas8D2Ev
                0x0000000000000000       0x30 build/machines/cortex/armv7em/stm32f303/coroLabBoard/tft/Adafruit-GFX-Library/Adafruit_GFX.cpp.o
 .text._ZN10GFXcanvas89getBufferEv
                0x0000000000000000       0x16 build/machines/cortex/armv7em/stm32f303/coroLabBoard/tft/Adafruit-GFX-Library/Adafruit_GFX.cpp.o
 .text._ZN10GFXcanvas89drawPixelEsst
                0x0000000000000000       0xf6 build/machines/cortex/armv7em/stm32f303/coroLabBoard/tft/Adafruit-GFX-Library/Adafruit_GFX.cpp.o
 .text._ZN10GFXcanvas810fillScreenEt
                0x0000000000000000       0x3a build/machines/cortex/armv7em/stm32f303/coroLabBoard/tft/Adafruit-GFX-Library/Adafruit_GFX.cpp.o
 .text._ZN10GFXcanvas814writeFastHLineEssst
                0x0000000000000000      0x13a build/machines/cortex/armv7em/stm32f303/coroLabBoard/tft/Adafruit-GFX-Library/Adafruit_GFX.cpp.o
 .text._ZN11GFXcanvas16C2Ett
                0x0000000000000000       0x70 build/machines/cortex/armv7em/stm32f303/coroLabBoard/tft/Adafruit-GFX-Library/Adafruit_GFX.cpp.o
 .text._ZN11GFXcanvas16D2Ev
                0x0000000000000000       0x30 build/machines/cortex/armv7em/stm32f303/coroLabBoard/tft/Adafruit-GFX-Library/Adafruit_GFX.cpp.o
 .text._ZN11GFXcanvas169getBufferEv
                0x0000000000000000       0x16 build/machines/cortex/armv7em/stm32f303/coroLabBoard/tft/Adafruit-GFX-Library/Adafruit_GFX.cpp.o
 .text._ZN11GFXcanvas169drawPixelEsst
                0x0000000000000000       0xf6 build/machines/cortex/armv7em/stm32f303/coroLabBoard/tft/Adafruit-GFX-Library/Adafruit_GFX.cpp.o
 .text._ZN11GFXcanvas1610fillScreenEt
                0x0000000000000000       0x88 build/machines/cortex/armv7em/stm32f303/coroLabBoard/tft/Adafruit-GFX-Library/Adafruit_GFX.cpp.o
 .rodata._ZTV11GFXcanvas16
                0x0000000000000000       0x50 build/machines/cortex/armv7em/stm32f303/coroLabBoard/tft/Adafruit-GFX-Library/Adafruit_GFX.cpp.o
 .rodata._ZTV10GFXcanvas8
                0x0000000000000000       0x50 build/machines/cortex/armv7em/stm32f303/coroLabBoard/tft/Adafruit-GFX-Library/Adafruit_GFX.cpp.o
 .rodata._ZTV10GFXcanvas1
                0x0000000000000000       0x50 build/machines/cortex/armv7em/stm32f303/coroLabBoard/tft/Adafruit-GFX-Library/Adafruit_GFX.cpp.o
 .group         0x0000000000000000        0xc build/machines/cortex/armv7em/stm32f303/coroLabBoard/tft/Adafruit-GFX-Library/Adafruit_SPITFT.cpp.o
 .group         0x0000000000000000        0x8 build/machines/cortex/armv7em/stm32f303/coroLabBoard/tft/Adafruit-GFX-Library/Adafruit_SPITFT.cpp.o
 .group         0x0000000000000000        0x8 build/machines/cortex/armv7em/stm32f303/coroLabBoard/tft/Adafruit-GFX-Library/Adafruit_SPITFT.cpp.o
 .group         0x0000000000000000        0x8 build/machines/cortex/armv7em/stm32f303/coroLabBoard/tft/Adafruit-GFX-Library/Adafruit_SPITFT.cpp.o
 .group         0x0000000000000000        0x8 build/machines/cortex/armv7em/stm32f303/coroLabBoard/tft/Adafruit-GFX-Library/Adafruit_SPITFT.cpp.o
 .text          0x0000000000000000        0x0 build/machines/cortex/armv7em/stm32f303/coroLabBoard/tft/Adafruit-GFX-Library/Adafruit_SPITFT.cpp.o
 .data          0x0000000000000000        0x0 build/machines/cortex/armv7em/stm32f303/coroLabBoard/tft/Adafruit-GFX-Library/Adafruit_SPITFT.cpp.o
 .bss           0x0000000000000000        0x0 build/machines/cortex/armv7em/stm32f303/coroLabBoard/tft/Adafruit-GFX-Library/Adafruit_SPITFT.cpp.o
 .text._ZN15Adafruit_SPITFT8color565Ehhh
                0x0000000000000000       0x52 build/machines/cortex/armv7em/stm32f303/coroLabBoard/tft/Adafruit-GFX-Library/Adafruit_SPITFT.cpp.o
 .text._ZN15Adafruit_SPITFT7spiReadEv
                0x0000000000000000       0x18 build/machines/cortex/armv7em/stm32f303/coroLabBoard/tft/Adafruit-GFX-Library/Adafruit_SPITFT.cpp.o
 .text._ZN15Adafruit_SPITFT9pushColorEt
                0x0000000000000000       0x44 build/machines/cortex/armv7em/stm32f303/coroLabBoard/tft/Adafruit-GFX-Library/Adafruit_SPITFT.cpp.o
 .text._ZN15Adafruit_SPITFT11writePixelsEPtm
                0x0000000000000000       0x48 build/machines/cortex/armv7em/stm32f303/coroLabBoard/tft/Adafruit-GFX-Library/Adafruit_SPITFT.cpp.o
 .text._ZN15Adafruit_SPITFT13drawRGBBitmapEssPtss
                0x0000000000000000      0x174 build/machines/cortex/armv7em/stm32f303/coroLabBoard/tft/Adafruit-GFX-Library/Adafruit_SPITFT.cpp.o
 .text          0x0000000000000000        0x0 /opt/gcc-arm-none-eabi-10.3-2021.07/bin/../lib/gcc/arm-none-eabi/10.3.1/../../../../arm-none-eabi/lib/thumb/v7e-m/nofp/libc.a(lib_a-malloc.o)
 .data          0x0000000000000000        0x0 /opt/gcc-arm-none-eabi-10.3-2021.07/bin/../lib/gcc/arm-none-eabi/10.3.1/../../../../arm-none-eabi/lib/thumb/v7e-m/nofp/libc.a(lib_a-malloc.o)
 .bss           0x0000000000000000        0x0 /opt/gcc-arm-none-eabi-10.3-2021.07/bin/../lib/gcc/arm-none-eabi/10.3.1/../../../../arm-none-eabi/lib/thumb/v7e-m/nofp/libc.a(lib_a-malloc.o)
 .text.malloc   0x0000000000000000       0x10 /opt/gcc-arm-none-eabi-10.3-2021.07/bin/../lib/gcc/arm-none-eabi/10.3.1/../../../../arm-none-eabi/lib/thumb/v7e-m/nofp/libc.a(lib_a-malloc.o)
 .text.free     0x0000000000000000       0x10 /opt/gcc-arm-none-eabi-10.3-2021.07/bin/../lib/gcc/arm-none-eabi/10.3.1/../../../../arm-none-eabi/lib/thumb/v7e-m/nofp/libc.a(lib_a-malloc.o)
 .debug_frame   0x0000000000000000       0x30 /opt/gcc-arm-none-eabi-10.3-2021.07/bin/../lib/gcc/arm-none-eabi/10.3.1/../../../../arm-none-eabi/lib/thumb/v7e-m/nofp/libc.a(lib_a-malloc.o)
 .ARM.attributes
                0x0000000000000000       0x2e /opt/gcc-arm-none-eabi-10.3-2021.07/bin/../lib/gcc/arm-none-eabi/10.3.1/../../../../arm-none-eabi/lib/thumb/v7e-m/nofp/libc.a(lib_a-malloc.o)
 .text          0x0000000000000000        0x0 /opt/gcc-arm-none-eabi-10.3-2021.07/bin/../lib/gcc/arm-none-eabi/10.3.1/../../../../arm-none-eabi/lib/thumb/v7e-m/nofp/libc.a(lib_a-mallocr.o)
 .data          0x0000000000000000        0x0 /opt/gcc-arm-none-eabi-10.3-2021.07/bin/../lib/gcc/arm-none-eabi/10.3.1/../../../../arm-none-eabi/lib/thumb/v7e-m/nofp/libc.a(lib_a-mallocr.o)
 .bss           0x0000000000000000        0x0 /opt/gcc-arm-none-eabi-10.3-2021.07/bin/../lib/gcc/arm-none-eabi/10.3.1/../../../../arm-none-eabi/lib/thumb/v7e-m/nofp/libc.a(lib_a-mallocr.o)
 .debug_frame   0x0000000000000000       0x4c /opt/gcc-arm-none-eabi-10.3-2021.07/bin/../lib/gcc/arm-none-eabi/10.3.1/../../../../arm-none-eabi/lib/thumb/v7e-m/nofp/libc.a(lib_a-mallocr.o)
 .ARM.attributes
                0x0000000000000000       0x2e /opt/gcc-arm-none-eabi-10.3-2021.07/bin/../lib/gcc/arm-none-eabi/10.3.1/../../../../arm-none-eabi/lib/thumb/v7e-m/nofp/libc.a(lib_a-mallocr.o)
 .text          0x0000000000000000        0x0 /opt/gcc-arm-none-eabi-10.3-2021.07/bin/../lib/gcc/arm-none-eabi/10.3.1/../../../../arm-none-eabi/lib/thumb/v7e-m/nofp/libc.a(lib_a-memset.o)
 .data          0x0000000000000000        0x0 /opt/gcc-arm-none-eabi-10.3-2021.07/bin/../lib/gcc/arm-none-eabi/10.3.1/../../../../arm-none-eabi/lib/thumb/v7e-m/nofp/libc.a(lib_a-memset.o)
 .bss           0x0000000000000000        0x0 /opt/gcc-arm-none-eabi-10.3-2021.07/bin/../lib/gcc/arm-none-eabi/10.3.1/../../../../arm-none-eabi/lib/thumb/v7e-m/nofp/libc.a(lib_a-memset.o)
 .debug_frame   0x0000000000000000       0x2c /opt/gcc-arm-none-eabi-10.3-2021.07/bin/../lib/gcc/arm-none-eabi/10.3.1/../../../../arm-none-eabi/lib/thumb/v7e-m/nofp/libc.a(lib_a-memset.o)
 .ARM.attributes
                0x0000000000000000       0x2e /opt/gcc-arm-none-eabi-10.3-2021.07/bin/../lib/gcc/arm-none-eabi/10.3.1/../../../../arm-none-eabi/lib/thumb/v7e-m/nofp/libc.a(lib_a-memset.o)
 .text          0x0000000000000000        0x0 /opt/gcc-arm-none-eabi-10.3-2021.07/bin/../lib/gcc/arm-none-eabi/10.3.1/../../../../arm-none-eabi/lib/thumb/v7e-m/nofp/libc.a(lib_a-mlock.o)
 .data          0x0000000000000000        0x0 /opt/gcc-arm-none-eabi-10.3-2021.07/bin/../lib/gcc/arm-none-eabi/10.3.1/../../../../arm-none-eabi/lib/thumb/v7e-m/nofp/libc.a(lib_a-mlock.o)
 .bss           0x0000000000000000        0x0 /opt/gcc-arm-none-eabi-10.3-2021.07/bin/../lib/gcc/arm-none-eabi/10.3.1/../../../../arm-none-eabi/lib/thumb/v7e-m/nofp/libc.a(lib_a-mlock.o)
 .debug_frame   0x0000000000000000       0x30 /opt/gcc-arm-none-eabi-10.3-2021.07/bin/../lib/gcc/arm-none-eabi/10.3.1/../../../../arm-none-eabi/lib/thumb/v7e-m/nofp/libc.a(lib_a-mlock.o)
 .ARM.attributes
                0x0000000000000000       0x2e /opt/gcc-arm-none-eabi-10.3-2021.07/bin/../lib/gcc/arm-none-eabi/10.3.1/../../../../arm-none-eabi/lib/thumb/v7e-m/nofp/libc.a(lib_a-mlock.o)
 .text          0x0000000000000000        0x0 /opt/gcc-arm-none-eabi-10.3-2021.07/bin/../lib/gcc/arm-none-eabi/10.3.1/../../../../arm-none-eabi/lib/thumb/v7e-m/nofp/libc.a(lib_a-printf.o)
 .data          0x0000000000000000        0x0 /opt/gcc-arm-none-eabi-10.3-2021.07/bin/../lib/gcc/arm-none-eabi/10.3.1/../../../../arm-none-eabi/lib/thumb/v7e-m/nofp/libc.a(lib_a-printf.o)
 .bss           0x0000000000000000        0x0 /opt/gcc-arm-none-eabi-10.3-2021.07/bin/../lib/gcc/arm-none-eabi/10.3.1/../../../../arm-none-eabi/lib/thumb/v7e-m/nofp/libc.a(lib_a-printf.o)
 .text._printf_r
                0x0000000000000000       0x20 /opt/gcc-arm-none-eabi-10.3-2021.07/bin/../lib/gcc/arm-none-eabi/10.3.1/../../../../arm-none-eabi/lib/thumb/v7e-m/nofp/libc.a(lib_a-printf.o)
 .debug_frame   0x0000000000000000       0x74 /opt/gcc-arm-none-eabi-10.3-2021.07/bin/../lib/gcc/arm-none-eabi/10.3.1/../../../../arm-none-eabi/lib/thumb/v7e-m/nofp/libc.a(lib_a-printf.o)
 .ARM.attributes
                0x0000000000000000       0x2e /opt/gcc-arm-none-eabi-10.3-2021.07/bin/../lib/gcc/arm-none-eabi/10.3.1/../../../../arm-none-eabi/lib/thumb/v7e-m/nofp/libc.a(lib_a-printf.o)
 .text          0x0000000000000000        0x0 /opt/gcc-arm-none-eabi-10.3-2021.07/bin/../lib/gcc/arm-none-eabi/10.3.1/../../../../arm-none-eabi/lib/thumb/v7e-m/nofp/libc.a(lib_a-sbrkr.o)
 .data          0x0000000000000000        0x0 /opt/gcc-arm-none-eabi-10.3-2021.07/bin/../lib/gcc/arm-none-eabi/10.3.1/../../../../arm-none-eabi/lib/thumb/v7e-m/nofp/libc.a(lib_a-sbrkr.o)
 .bss           0x0000000000000000        0x0 /opt/gcc-arm-none-eabi-10.3-2021.07/bin/../lib/gcc/arm-none-eabi/10.3.1/../../../../arm-none-eabi/lib/thumb/v7e-m/nofp/libc.a(lib_a-sbrkr.o)
 .debug_frame   0x0000000000000000       0x2c /opt/gcc-arm-none-eabi-10.3-2021.07/bin/../lib/gcc/arm-none-eabi/10.3.1/../../../../arm-none-eabi/lib/thumb/v7e-m/nofp/libc.a(lib_a-sbrkr.o)
 .ARM.attributes
                0x0000000000000000       0x2e /opt/gcc-arm-none-eabi-10.3-2021.07/bin/../lib/gcc/arm-none-eabi/10.3.1/../../../../arm-none-eabi/lib/thumb/v7e-m/nofp/libc.a(lib_a-sbrkr.o)
 .data          0x0000000000000000        0x0 /opt/gcc-arm-none-eabi-10.3-2021.07/bin/../lib/gcc/arm-none-eabi/10.3.1/../../../../arm-none-eabi/lib/thumb/v7e-m/nofp/libc.a(lib_a-strlen.o)
 .bss           0x0000000000000000        0x0 /opt/gcc-arm-none-eabi-10.3-2021.07/bin/../lib/gcc/arm-none-eabi/10.3.1/../../../../arm-none-eabi/lib/thumb/v7e-m/nofp/libc.a(lib_a-strlen.o)
 .ARM.attributes
                0x0000000000000000       0x1c /opt/gcc-arm-none-eabi-10.3-2021.07/bin/../lib/gcc/arm-none-eabi/10.3.1/../../../../arm-none-eabi/lib/thumb/v7e-m/nofp/libc.a(lib_a-strlen.o)
 .text          0x0000000000000000        0x0 /opt/gcc-arm-none-eabi-10.3-2021.07/bin/../lib/gcc/arm-none-eabi/10.3.1/../../../../arm-none-eabi/lib/thumb/v7e-m/nofp/libc.a(lib_a-strncpy.o)
 .data          0x0000000000000000        0x0 /opt/gcc-arm-none-eabi-10.3-2021.07/bin/../lib/gcc/arm-none-eabi/10.3.1/../../../../arm-none-eabi/lib/thumb/v7e-m/nofp/libc.a(lib_a-strncpy.o)
 .bss           0x0000000000000000        0x0 /opt/gcc-arm-none-eabi-10.3-2021.07/bin/../lib/gcc/arm-none-eabi/10.3.1/../../../../arm-none-eabi/lib/thumb/v7e-m/nofp/libc.a(lib_a-strncpy.o)
 .debug_frame   0x0000000000000000       0x2c /opt/gcc-arm-none-eabi-10.3-2021.07/bin/../lib/gcc/arm-none-eabi/10.3.1/../../../../arm-none-eabi/lib/thumb/v7e-m/nofp/libc.a(lib_a-strncpy.o)
 .ARM.attributes
                0x0000000000000000       0x2e /opt/gcc-arm-none-eabi-10.3-2021.07/bin/../lib/gcc/arm-none-eabi/10.3.1/../../../../arm-none-eabi/lib/thumb/v7e-m/nofp/libc.a(lib_a-strncpy.o)
 .text          0x0000000000000000        0x0 /opt/gcc-arm-none-eabi-10.3-2021.07/bin/../lib/gcc/arm-none-eabi/10.3.1/../../../../arm-none-eabi/lib/thumb/v7e-m/nofp/libc.a(lib_a-vfprintf.o)
 .data          0x0000000000000000        0x0 /opt/gcc-arm-none-eabi-10.3-2021.07/bin/../lib/gcc/arm-none-eabi/10.3.1/../../../../arm-none-eabi/lib/thumb/v7e-m/nofp/libc.a(lib_a-vfprintf.o)
 .bss           0x0000000000000000        0x0 /opt/gcc-arm-none-eabi-10.3-2021.07/bin/../lib/gcc/arm-none-eabi/10.3.1/../../../../arm-none-eabi/lib/thumb/v7e-m/nofp/libc.a(lib_a-vfprintf.o)
 .text.vfprintf
                0x0000000000000000       0x18 /opt/gcc-arm-none-eabi-10.3-2021.07/bin/../lib/gcc/arm-none-eabi/10.3.1/../../../../arm-none-eabi/lib/thumb/v7e-m/nofp/libc.a(lib_a-vfprintf.o)
 .debug_frame   0x0000000000000000       0x94 /opt/gcc-arm-none-eabi-10.3-2021.07/bin/../lib/gcc/arm-none-eabi/10.3.1/../../../../arm-none-eabi/lib/thumb/v7e-m/nofp/libc.a(lib_a-vfprintf.o)
 .ARM.attributes
                0x0000000000000000       0x2e /opt/gcc-arm-none-eabi-10.3-2021.07/bin/../lib/gcc/arm-none-eabi/10.3.1/../../../../arm-none-eabi/lib/thumb/v7e-m/nofp/libc.a(lib_a-vfprintf.o)
 .text          0x0000000000000000        0x0 /opt/gcc-arm-none-eabi-10.3-2021.07/bin/../lib/gcc/arm-none-eabi/10.3.1/../../../../arm-none-eabi/lib/thumb/v7e-m/nofp/libc.a(lib_a-wsetup.o)
 .data          0x0000000000000000        0x0 /opt/gcc-arm-none-eabi-10.3-2021.07/bin/../lib/gcc/arm-none-eabi/10.3.1/../../../../arm-none-eabi/lib/thumb/v7e-m/nofp/libc.a(lib_a-wsetup.o)
 .bss           0x0000000000000000        0x0 /opt/gcc-arm-none-eabi-10.3-2021.07/bin/../lib/gcc/arm-none-eabi/10.3.1/../../../../arm-none-eabi/lib/thumb/v7e-m/nofp/libc.a(lib_a-wsetup.o)
 .debug_frame   0x0000000000000000       0x2c /opt/gcc-arm-none-eabi-10.3-2021.07/bin/../lib/gcc/arm-none-eabi/10.3.1/../../../../arm-none-eabi/lib/thumb/v7e-m/nofp/libc.a(lib_a-wsetup.o)
 .ARM.attributes
                0x0000000000000000       0x2e /opt/gcc-arm-none-eabi-10.3-2021.07/bin/../lib/gcc/arm-none-eabi/10.3.1/../../../../arm-none-eabi/lib/thumb/v7e-m/nofp/libc.a(lib_a-wsetup.o)
 .text          0x0000000000000000        0x0 /opt/gcc-arm-none-eabi-10.3-2021.07/bin/../lib/gcc/arm-none-eabi/10.3.1/../../../../arm-none-eabi/lib/thumb/v7e-m/nofp/libc.a(lib_a-dtoa.o)
 .data          0x0000000000000000        0x0 /opt/gcc-arm-none-eabi-10.3-2021.07/bin/../lib/gcc/arm-none-eabi/10.3.1/../../../../arm-none-eabi/lib/thumb/v7e-m/nofp/libc.a(lib_a-dtoa.o)
 .bss           0x0000000000000000        0x0 /opt/gcc-arm-none-eabi-10.3-2021.07/bin/../lib/gcc/arm-none-eabi/10.3.1/../../../../arm-none-eabi/lib/thumb/v7e-m/nofp/libc.a(lib_a-dtoa.o)
 .debug_frame   0x0000000000000000       0x8c /opt/gcc-arm-none-eabi-10.3-2021.07/bin/../lib/gcc/arm-none-eabi/10.3.1/../../../../arm-none-eabi/lib/thumb/v7e-m/nofp/libc.a(lib_a-dtoa.o)
 .ARM.attributes
                0x0000000000000000       0x2e /opt/gcc-arm-none-eabi-10.3-2021.07/bin/../lib/gcc/arm-none-eabi/10.3.1/../../../../arm-none-eabi/lib/thumb/v7e-m/nofp/libc.a(lib_a-dtoa.o)
 .text          0x0000000000000000        0x0 /opt/gcc-arm-none-eabi-10.3-2021.07/bin/../lib/gcc/arm-none-eabi/10.3.1/../../../../arm-none-eabi/lib/thumb/v7e-m/nofp/libc.a(lib_a-fflush.o)
 .data          0x0000000000000000        0x0 /opt/gcc-arm-none-eabi-10.3-2021.07/bin/../lib/gcc/arm-none-eabi/10.3.1/../../../../arm-none-eabi/lib/thumb/v7e-m/nofp/libc.a(lib_a-fflush.o)
 .bss           0x0000000000000000        0x0 /opt/gcc-arm-none-eabi-10.3-2021.07/bin/../lib/gcc/arm-none-eabi/10.3.1/../../../../arm-none-eabi/lib/thumb/v7e-m/nofp/libc.a(lib_a-fflush.o)
 .text.fflush   0x0000000000000000       0x74 /opt/gcc-arm-none-eabi-10.3-2021.07/bin/../lib/gcc/arm-none-eabi/10.3.1/../../../../arm-none-eabi/lib/thumb/v7e-m/nofp/libc.a(lib_a-fflush.o)
 .debug_frame   0x0000000000000000       0x70 /opt/gcc-arm-none-eabi-10.3-2021.07/bin/../lib/gcc/arm-none-eabi/10.3.1/../../../../arm-none-eabi/lib/thumb/v7e-m/nofp/libc.a(lib_a-fflush.o)
 .ARM.attributes
                0x0000000000000000       0x2e /opt/gcc-arm-none-eabi-10.3-2021.07/bin/../lib/gcc/arm-none-eabi/10.3.1/../../../../arm-none-eabi/lib/thumb/v7e-m/nofp/libc.a(lib_a-fflush.o)
 .text          0x0000000000000000        0x0 /opt/gcc-arm-none-eabi-10.3-2021.07/bin/../lib/gcc/arm-none-eabi/10.3.1/../../../../arm-none-eabi/lib/thumb/v7e-m/nofp/libc.a(lib_a-findfp.o)
 .data          0x0000000000000000        0x0 /opt/gcc-arm-none-eabi-10.3-2021.07/bin/../lib/gcc/arm-none-eabi/10.3.1/../../../../arm-none-eabi/lib/thumb/v7e-m/nofp/libc.a(lib_a-findfp.o)
 .bss           0x0000000000000000        0x0 /opt/gcc-arm-none-eabi-10.3-2021.07/bin/../lib/gcc/arm-none-eabi/10.3.1/../../../../arm-none-eabi/lib/thumb/v7e-m/nofp/libc.a(lib_a-findfp.o)
 .text.__fp_lock
                0x0000000000000000       0x1c /opt/gcc-arm-none-eabi-10.3-2021.07/bin/../lib/gcc/arm-none-eabi/10.3.1/../../../../arm-none-eabi/lib/thumb/v7e-m/nofp/libc.a(lib_a-findfp.o)
 .text.__fp_unlock
                0x0000000000000000       0x1c /opt/gcc-arm-none-eabi-10.3-2021.07/bin/../lib/gcc/arm-none-eabi/10.3.1/../../../../arm-none-eabi/lib/thumb/v7e-m/nofp/libc.a(lib_a-findfp.o)
 .text.__sfmoreglue
                0x0000000000000000       0x30 /opt/gcc-arm-none-eabi-10.3-2021.07/bin/../lib/gcc/arm-none-eabi/10.3.1/../../../../arm-none-eabi/lib/thumb/v7e-m/nofp/libc.a(lib_a-findfp.o)
 .text._cleanup
                0x0000000000000000       0x14 /opt/gcc-arm-none-eabi-10.3-2021.07/bin/../lib/gcc/arm-none-eabi/10.3.1/../../../../arm-none-eabi/lib/thumb/v7e-m/nofp/libc.a(lib_a-findfp.o)
 .text.__sfp    0x0000000000000000       0xc8 /opt/gcc-arm-none-eabi-10.3-2021.07/bin/../lib/gcc/arm-none-eabi/10.3.1/../../../../arm-none-eabi/lib/thumb/v7e-m/nofp/libc.a(lib_a-findfp.o)
 .text.__sinit_lock_acquire
                0x0000000000000000        0xc /opt/gcc-arm-none-eabi-10.3-2021.07/bin/../lib/gcc/arm-none-eabi/10.3.1/../../../../arm-none-eabi/lib/thumb/v7e-m/nofp/libc.a(lib_a-findfp.o)
 .text.__sinit_lock_release
                0x0000000000000000        0xc /opt/gcc-arm-none-eabi-10.3-2021.07/bin/../lib/gcc/arm-none-eabi/10.3.1/../../../../arm-none-eabi/lib/thumb/v7e-m/nofp/libc.a(lib_a-findfp.o)
 .text.__fp_lock_all
                0x0000000000000000       0x24 /opt/gcc-arm-none-eabi-10.3-2021.07/bin/../lib/gcc/arm-none-eabi/10.3.1/../../../../arm-none-eabi/lib/thumb/v7e-m/nofp/libc.a(lib_a-findfp.o)
 .text.__fp_unlock_all
                0x0000000000000000       0x24 /opt/gcc-arm-none-eabi-10.3-2021.07/bin/../lib/gcc/arm-none-eabi/10.3.1/../../../../arm-none-eabi/lib/thumb/v7e-m/nofp/libc.a(lib_a-findfp.o)
 .debug_frame   0x0000000000000000      0x154 /opt/gcc-arm-none-eabi-10.3-2021.07/bin/../lib/gcc/arm-none-eabi/10.3.1/../../../../arm-none-eabi/lib/thumb/v7e-m/nofp/libc.a(lib_a-findfp.o)
 .ARM.attributes
                0x0000000000000000       0x2e /opt/gcc-arm-none-eabi-10.3-2021.07/bin/../lib/gcc/arm-none-eabi/10.3.1/../../../../arm-none-eabi/lib/thumb/v7e-m/nofp/libc.a(lib_a-findfp.o)
 .text          0x0000000000000000        0x0 /opt/gcc-arm-none-eabi-10.3-2021.07/bin/../lib/gcc/arm-none-eabi/10.3.1/../../../../arm-none-eabi/lib/thumb/v7e-m/nofp/libc.a(lib_a-freer.o)
 .data          0x0000000000000000        0x0 /opt/gcc-arm-none-eabi-10.3-2021.07/bin/../lib/gcc/arm-none-eabi/10.3.1/../../../../arm-none-eabi/lib/thumb/v7e-m/nofp/libc.a(lib_a-freer.o)
 .bss           0x0000000000000000        0x0 /opt/gcc-arm-none-eabi-10.3-2021.07/bin/../lib/gcc/arm-none-eabi/10.3.1/../../../../arm-none-eabi/lib/thumb/v7e-m/nofp/libc.a(lib_a-freer.o)
 .debug_frame   0x0000000000000000       0x8c /opt/gcc-arm-none-eabi-10.3-2021.07/bin/../lib/gcc/arm-none-eabi/10.3.1/../../../../arm-none-eabi/lib/thumb/v7e-m/nofp/libc.a(lib_a-freer.o)
 .ARM.attributes
                0x0000000000000000       0x2e /opt/gcc-arm-none-eabi-10.3-2021.07/bin/../lib/gcc/arm-none-eabi/10.3.1/../../../../arm-none-eabi/lib/thumb/v7e-m/nofp/libc.a(lib_a-freer.o)
 .text          0x0000000000000000        0x0 /opt/gcc-arm-none-eabi-10.3-2021.07/bin/../lib/gcc/arm-none-eabi/10.3.1/../../../../arm-none-eabi/lib/thumb/v7e-m/nofp/libc.a(lib_a-fwalk.o)
 .data          0x0000000000000000        0x0 /opt/gcc-arm-none-eabi-10.3-2021.07/bin/../lib/gcc/arm-none-eabi/10.3.1/../../../../arm-none-eabi/lib/thumb/v7e-m/nofp/libc.a(lib_a-fwalk.o)
 .bss           0x0000000000000000        0x0 /opt/gcc-arm-none-eabi-10.3-2021.07/bin/../lib/gcc/arm-none-eabi/10.3.1/../../../../arm-none-eabi/lib/thumb/v7e-m/nofp/libc.a(lib_a-fwalk.o)
 .text._fwalk   0x0000000000000000       0x40 /opt/gcc-arm-none-eabi-10.3-2021.07/bin/../lib/gcc/arm-none-eabi/10.3.1/../../../../arm-none-eabi/lib/thumb/v7e-m/nofp/libc.a(lib_a-fwalk.o)
 .debug_frame   0x0000000000000000       0x54 /opt/gcc-arm-none-eabi-10.3-2021.07/bin/../lib/gcc/arm-none-eabi/10.3.1/../../../../arm-none-eabi/lib/thumb/v7e-m/nofp/libc.a(lib_a-fwalk.o)
 .ARM.attributes
                0x0000000000000000       0x2e /opt/gcc-arm-none-eabi-10.3-2021.07/bin/../lib/gcc/arm-none-eabi/10.3.1/../../../../arm-none-eabi/lib/thumb/v7e-m/nofp/libc.a(lib_a-fwalk.o)
 .text          0x0000000000000000        0x0 /opt/gcc-arm-none-eabi-10.3-2021.07/bin/../lib/gcc/arm-none-eabi/10.3.1/../../../../arm-none-eabi/lib/thumb/v7e-m/nofp/libc.a(lib_a-impure.o)
 .data          0x0000000000000000        0x0 /opt/gcc-arm-none-eabi-10.3-2021.07/bin/../lib/gcc/arm-none-eabi/10.3.1/../../../../arm-none-eabi/lib/thumb/v7e-m/nofp/libc.a(lib_a-impure.o)
 .bss           0x0000000000000000        0x0 /opt/gcc-arm-none-eabi-10.3-2021.07/bin/../lib/gcc/arm-none-eabi/10.3.1/../../../../arm-none-eabi/lib/thumb/v7e-m/nofp/libc.a(lib_a-impure.o)
 .rodata._global_impure_ptr
                0x0000000000000000        0x4 /opt/gcc-arm-none-eabi-10.3-2021.07/bin/../lib/gcc/arm-none-eabi/10.3.1/../../../../arm-none-eabi/lib/thumb/v7e-m/nofp/libc.a(lib_a-impure.o)
 .ARM.attributes
                0x0000000000000000       0x2e /opt/gcc-arm-none-eabi-10.3-2021.07/bin/../lib/gcc/arm-none-eabi/10.3.1/../../../../arm-none-eabi/lib/thumb/v7e-m/nofp/libc.a(lib_a-impure.o)
 .text          0x0000000000000000        0x0 /opt/gcc-arm-none-eabi-10.3-2021.07/bin/../lib/gcc/arm-none-eabi/10.3.1/../../../../arm-none-eabi/lib/thumb/v7e-m/nofp/libc.a(lib_a-localeconv.o)
 .data          0x0000000000000000        0x0 /opt/gcc-arm-none-eabi-10.3-2021.07/bin/../lib/gcc/arm-none-eabi/10.3.1/../../../../arm-none-eabi/lib/thumb/v7e-m/nofp/libc.a(lib_a-localeconv.o)
 .bss           0x0000000000000000        0x0 /opt/gcc-arm-none-eabi-10.3-2021.07/bin/../lib/gcc/arm-none-eabi/10.3.1/../../../../arm-none-eabi/lib/thumb/v7e-m/nofp/libc.a(lib_a-localeconv.o)
 .text.__localeconv_l
                0x0000000000000000        0x4 /opt/gcc-arm-none-eabi-10.3-2021.07/bin/../lib/gcc/arm-none-eabi/10.3.1/../../../../arm-none-eabi/lib/thumb/v7e-m/nofp/libc.a(lib_a-localeconv.o)
 .text.localeconv
                0x0000000000000000        0x8 /opt/gcc-arm-none-eabi-10.3-2021.07/bin/../lib/gcc/arm-none-eabi/10.3.1/../../../../arm-none-eabi/lib/thumb/v7e-m/nofp/libc.a(lib_a-localeconv.o)
 .debug_frame   0x0000000000000000       0x40 /opt/gcc-arm-none-eabi-10.3-2021.07/bin/../lib/gcc/arm-none-eabi/10.3.1/../../../../arm-none-eabi/lib/thumb/v7e-m/nofp/libc.a(lib_a-localeconv.o)
 .ARM.attributes
                0x0000000000000000       0x2e /opt/gcc-arm-none-eabi-10.3-2021.07/bin/../lib/gcc/arm-none-eabi/10.3.1/../../../../arm-none-eabi/lib/thumb/v7e-m/nofp/libc.a(lib_a-localeconv.o)
 .text          0x0000000000000000        0x0 /opt/gcc-arm-none-eabi-10.3-2021.07/bin/../lib/gcc/arm-none-eabi/10.3.1/../../../../arm-none-eabi/lib/thumb/v7e-m/nofp/libc.a(lib_a-lock.o)
 .data          0x0000000000000000        0x0 /opt/gcc-arm-none-eabi-10.3-2021.07/bin/../lib/gcc/arm-none-eabi/10.3.1/../../../../arm-none-eabi/lib/thumb/v7e-m/nofp/libc.a(lib_a-lock.o)
 .bss           0x0000000000000000        0x0 /opt/gcc-arm-none-eabi-10.3-2021.07/bin/../lib/gcc/arm-none-eabi/10.3.1/../../../../arm-none-eabi/lib/thumb/v7e-m/nofp/libc.a(lib_a-lock.o)
 .text.__retarget_lock_init
                0x0000000000000000        0x4 /opt/gcc-arm-none-eabi-10.3-2021.07/bin/../lib/gcc/arm-none-eabi/10.3.1/../../../../arm-none-eabi/lib/thumb/v7e-m/nofp/libc.a(lib_a-lock.o)
 .text.__retarget_lock_close
                0x0000000000000000        0x4 /opt/gcc-arm-none-eabi-10.3-2021.07/bin/../lib/gcc/arm-none-eabi/10.3.1/../../../../arm-none-eabi/lib/thumb/v7e-m/nofp/libc.a(lib_a-lock.o)
 .text.__retarget_lock_acquire
                0x0000000000000000        0x4 /opt/gcc-arm-none-eabi-10.3-2021.07/bin/../lib/gcc/arm-none-eabi/10.3.1/../../../../arm-none-eabi/lib/thumb/v7e-m/nofp/libc.a(lib_a-lock.o)
 .text.__retarget_lock_try_acquire
                0x0000000000000000        0x4 /opt/gcc-arm-none-eabi-10.3-2021.07/bin/../lib/gcc/arm-none-eabi/10.3.1/../../../../arm-none-eabi/lib/thumb/v7e-m/nofp/libc.a(lib_a-lock.o)
 .text.__retarget_lock_try_acquire_recursive
                0x0000000000000000        0x4 /opt/gcc-arm-none-eabi-10.3-2021.07/bin/../lib/gcc/arm-none-eabi/10.3.1/../../../../arm-none-eabi/lib/thumb/v7e-m/nofp/libc.a(lib_a-lock.o)
 .text.__retarget_lock_release
                0x0000000000000000        0x4 /opt/gcc-arm-none-eabi-10.3-2021.07/bin/../lib/gcc/arm-none-eabi/10.3.1/../../../../arm-none-eabi/lib/thumb/v7e-m/nofp/libc.a(lib_a-lock.o)
 .bss.__lock___arc4random_mutex
                0x0000000000000000        0x1 /opt/gcc-arm-none-eabi-10.3-2021.07/bin/../lib/gcc/arm-none-eabi/10.3.1/../../../../arm-none-eabi/lib/thumb/v7e-m/nofp/libc.a(lib_a-lock.o)
 .bss.__lock___at_quick_exit_mutex
                0x0000000000000000        0x1 /opt/gcc-arm-none-eabi-10.3-2021.07/bin/../lib/gcc/arm-none-eabi/10.3.1/../../../../arm-none-eabi/lib/thumb/v7e-m/nofp/libc.a(lib_a-lock.o)
 .bss.__lock___atexit_recursive_mutex
                0x0000000000000000        0x1 /opt/gcc-arm-none-eabi-10.3-2021.07/bin/../lib/gcc/arm-none-eabi/10.3.1/../../../../arm-none-eabi/lib/thumb/v7e-m/nofp/libc.a(lib_a-lock.o)
 .bss.__lock___dd_hash_mutex
                0x0000000000000000        0x1 /opt/gcc-arm-none-eabi-10.3-2021.07/bin/../lib/gcc/arm-none-eabi/10.3.1/../../../../arm-none-eabi/lib/thumb/v7e-m/nofp/libc.a(lib_a-lock.o)
 .bss.__lock___env_recursive_mutex
                0x0000000000000000        0x1 /opt/gcc-arm-none-eabi-10.3-2021.07/bin/../lib/gcc/arm-none-eabi/10.3.1/../../../../arm-none-eabi/lib/thumb/v7e-m/nofp/libc.a(lib_a-lock.o)
 .bss.__lock___tz_mutex
                0x0000000000000000        0x1 /opt/gcc-arm-none-eabi-10.3-2021.07/bin/../lib/gcc/arm-none-eabi/10.3.1/../../../../arm-none-eabi/lib/thumb/v7e-m/nofp/libc.a(lib_a-lock.o)
 .debug_frame   0x0000000000000000       0xb0 /opt/gcc-arm-none-eabi-10.3-2021.07/bin/../lib/gcc/arm-none-eabi/10.3.1/../../../../arm-none-eabi/lib/thumb/v7e-m/nofp/libc.a(lib_a-lock.o)
 .ARM.attributes
                0x0000000000000000       0x2e /opt/gcc-arm-none-eabi-10.3-2021.07/bin/../lib/gcc/arm-none-eabi/10.3.1/../../../../arm-none-eabi/lib/thumb/v7e-m/nofp/libc.a(lib_a-lock.o)
 .text          0x0000000000000000        0x0 /opt/gcc-arm-none-eabi-10.3-2021.07/bin/../lib/gcc/arm-none-eabi/10.3.1/../../../../arm-none-eabi/lib/thumb/v7e-m/nofp/libc.a(lib_a-makebuf.o)
 .data          0x0000000000000000        0x0 /opt/gcc-arm-none-eabi-10.3-2021.07/bin/../lib/gcc/arm-none-eabi/10.3.1/../../../../arm-none-eabi/lib/thumb/v7e-m/nofp/libc.a(lib_a-makebuf.o)
 .bss           0x0000000000000000        0x0 /opt/gcc-arm-none-eabi-10.3-2021.07/bin/../lib/gcc/arm-none-eabi/10.3.1/../../../../arm-none-eabi/lib/thumb/v7e-m/nofp/libc.a(lib_a-makebuf.o)
 .text.__swhatbuf_r
                0x0000000000000000       0x60 /opt/gcc-arm-none-eabi-10.3-2021.07/bin/../lib/gcc/arm-none-eabi/10.3.1/../../../../arm-none-eabi/lib/thumb/v7e-m/nofp/libc.a(lib_a-makebuf.o)
 .debug_frame   0x0000000000000000       0x70 /opt/gcc-arm-none-eabi-10.3-2021.07/bin/../lib/gcc/arm-none-eabi/10.3.1/../../../../arm-none-eabi/lib/thumb/v7e-m/nofp/libc.a(lib_a-makebuf.o)
 .ARM.attributes
                0x0000000000000000       0x2e /opt/gcc-arm-none-eabi-10.3-2021.07/bin/../lib/gcc/arm-none-eabi/10.3.1/../../../../arm-none-eabi/lib/thumb/v7e-m/nofp/libc.a(lib_a-makebuf.o)
 .data          0x0000000000000000        0x0 /opt/gcc-arm-none-eabi-10.3-2021.07/bin/../lib/gcc/arm-none-eabi/10.3.1/../../../../arm-none-eabi/lib/thumb/v7e-m/nofp/libc.a(lib_a-memchr.o)
 .bss           0x0000000000000000        0x0 /opt/gcc-arm-none-eabi-10.3-2021.07/bin/../lib/gcc/arm-none-eabi/10.3.1/../../../../arm-none-eabi/lib/thumb/v7e-m/nofp/libc.a(lib_a-memchr.o)
 .ARM.attributes
                0x0000000000000000       0x1c /opt/gcc-arm-none-eabi-10.3-2021.07/bin/../lib/gcc/arm-none-eabi/10.3.1/../../../../arm-none-eabi/lib/thumb/v7e-m/nofp/libc.a(lib_a-memchr.o)
 .data          0x0000000000000000        0x0 /opt/gcc-arm-none-eabi-10.3-2021.07/bin/../lib/gcc/arm-none-eabi/10.3.1/../../../../arm-none-eabi/lib/thumb/v7e-m/nofp/libc.a(lib_a-memcpy.o)
 .bss           0x0000000000000000        0x0 /opt/gcc-arm-none-eabi-10.3-2021.07/bin/../lib/gcc/arm-none-eabi/10.3.1/../../../../arm-none-eabi/lib/thumb/v7e-m/nofp/libc.a(lib_a-memcpy.o)
 .ARM.attributes
                0x0000000000000000       0x1c /opt/gcc-arm-none-eabi-10.3-2021.07/bin/../lib/gcc/arm-none-eabi/10.3.1/../../../../arm-none-eabi/lib/thumb/v7e-m/nofp/libc.a(lib_a-memcpy.o)
 .text          0x0000000000000000        0x0 /opt/gcc-arm-none-eabi-10.3-2021.07/bin/../lib/gcc/arm-none-eabi/10.3.1/../../../../arm-none-eabi/lib/thumb/v7e-m/nofp/libc.a(lib_a-mprec.o)
 .data          0x0000000000000000        0x0 /opt/gcc-arm-none-eabi-10.3-2021.07/bin/../lib/gcc/arm-none-eabi/10.3.1/../../../../arm-none-eabi/lib/thumb/v7e-m/nofp/libc.a(lib_a-mprec.o)
 .bss           0x0000000000000000        0x0 /opt/gcc-arm-none-eabi-10.3-2021.07/bin/../lib/gcc/arm-none-eabi/10.3.1/../../../../arm-none-eabi/lib/thumb/v7e-m/nofp/libc.a(lib_a-mprec.o)
 .text.__s2b    0x0000000000000000       0xb4 /opt/gcc-arm-none-eabi-10.3-2021.07/bin/../lib/gcc/arm-none-eabi/10.3.1/../../../../arm-none-eabi/lib/thumb/v7e-m/nofp/libc.a(lib_a-mprec.o)
 .text.__ulp    0x0000000000000000       0x44 /opt/gcc-arm-none-eabi-10.3-2021.07/bin/../lib/gcc/arm-none-eabi/10.3.1/../../../../arm-none-eabi/lib/thumb/v7e-m/nofp/libc.a(lib_a-mprec.o)
 .text.__b2d    0x0000000000000000       0xd0 /opt/gcc-arm-none-eabi-10.3-2021.07/bin/../lib/gcc/arm-none-eabi/10.3.1/../../../../arm-none-eabi/lib/thumb/v7e-m/nofp/libc.a(lib_a-mprec.o)
 .text.__ratio  0x0000000000000000       0x5c /opt/gcc-arm-none-eabi-10.3-2021.07/bin/../lib/gcc/arm-none-eabi/10.3.1/../../../../arm-none-eabi/lib/thumb/v7e-m/nofp/libc.a(lib_a-mprec.o)
 .text._mprec_log10
                0x0000000000000000       0x38 /opt/gcc-arm-none-eabi-10.3-2021.07/bin/../lib/gcc/arm-none-eabi/10.3.1/../../../../arm-none-eabi/lib/thumb/v7e-m/nofp/libc.a(lib_a-mprec.o)
 .text.__copybits
                0x0000000000000000       0x5c /opt/gcc-arm-none-eabi-10.3-2021.07/bin/../lib/gcc/arm-none-eabi/10.3.1/../../../../arm-none-eabi/lib/thumb/v7e-m/nofp/libc.a(lib_a-mprec.o)
 .text.__any_on
                0x0000000000000000       0x60 /opt/gcc-arm-none-eabi-10.3-2021.07/bin/../lib/gcc/arm-none-eabi/10.3.1/../../../../arm-none-eabi/lib/thumb/v7e-m/nofp/libc.a(lib_a-mprec.o)
 .rodata.__mprec_tinytens
                0x0000000000000000       0x28 /opt/gcc-arm-none-eabi-10.3-2021.07/bin/../lib/gcc/arm-none-eabi/10.3.1/../../../../arm-none-eabi/lib/thumb/v7e-m/nofp/libc.a(lib_a-mprec.o)
 .debug_frame   0x0000000000000000      0x264 /opt/gcc-arm-none-eabi-10.3-2021.07/bin/../lib/gcc/arm-none-eabi/10.3.1/../../../../arm-none-eabi/lib/thumb/v7e-m/nofp/libc.a(lib_a-mprec.o)
 .ARM.attributes
                0x0000000000000000       0x2e /opt/gcc-arm-none-eabi-10.3-2021.07/bin/../lib/gcc/arm-none-eabi/10.3.1/../../../../arm-none-eabi/lib/thumb/v7e-m/nofp/libc.a(lib_a-mprec.o)
 .text          0x0000000000000000        0x0 /opt/gcc-arm-none-eabi-10.3-2021.07/bin/../lib/gcc/arm-none-eabi/10.3.1/../../../../arm-none-eabi/lib/thumb/v7e-m/nofp/libc.a(lib_a-reent.o)
 .data          0x0000000000000000        0x0 /opt/gcc-arm-none-eabi-10.3-2021.07/bin/../lib/gcc/arm-none-eabi/10.3.1/../../../../arm-none-eabi/lib/thumb/v7e-m/nofp/libc.a(lib_a-reent.o)
 .bss           0x0000000000000000        0x0 /opt/gcc-arm-none-eabi-10.3-2021.07/bin/../lib/gcc/arm-none-eabi/10.3.1/../../../../arm-none-eabi/lib/thumb/v7e-m/nofp/libc.a(lib_a-reent.o)
 .text.cleanup_glue
                0x0000000000000000       0x48 /opt/gcc-arm-none-eabi-10.3-2021.07/bin/../lib/gcc/arm-none-eabi/10.3.1/../../../../arm-none-eabi/lib/thumb/v7e-m/nofp/libc.a(lib_a-reent.o)
 .text._reclaim_reent
                0x0000000000000000       0x90 /opt/gcc-arm-none-eabi-10.3-2021.07/bin/../lib/gcc/arm-none-eabi/10.3.1/../../../../arm-none-eabi/lib/thumb/v7e-m/nofp/libc.a(lib_a-reent.o)
 .debug_frame   0x0000000000000000       0x64 /opt/gcc-arm-none-eabi-10.3-2021.07/bin/../lib/gcc/arm-none-eabi/10.3.1/../../../../arm-none-eabi/lib/thumb/v7e-m/nofp/libc.a(lib_a-reent.o)
 .ARM.attributes
                0x0000000000000000       0x2e /opt/gcc-arm-none-eabi-10.3-2021.07/bin/../lib/gcc/arm-none-eabi/10.3.1/../../../../arm-none-eabi/lib/thumb/v7e-m/nofp/libc.a(lib_a-reent.o)
 .text          0x0000000000000000        0x0 /opt/gcc-arm-none-eabi-10.3-2021.07/bin/../lib/gcc/arm-none-eabi/10.3.1/../../../../arm-none-eabi/lib/thumb/v7e-m/nofp/libc.a(lib_a-s_frexp.o)
 .data          0x0000000000000000        0x0 /opt/gcc-arm-none-eabi-10.3-2021.07/bin/../lib/gcc/arm-none-eabi/10.3.1/../../../../arm-none-eabi/lib/thumb/v7e-m/nofp/libc.a(lib_a-s_frexp.o)
 .bss           0x0000000000000000        0x0 /opt/gcc-arm-none-eabi-10.3-2021.07/bin/../lib/gcc/arm-none-eabi/10.3.1/../../../../arm-none-eabi/lib/thumb/v7e-m/nofp/libc.a(lib_a-s_frexp.o)
 .debug_frame   0x0000000000000000       0x30 /opt/gcc-arm-none-eabi-10.3-2021.07/bin/../lib/gcc/arm-none-eabi/10.3.1/../../../../arm-none-eabi/lib/thumb/v7e-m/nofp/libc.a(lib_a-s_frexp.o)
 .ARM.attributes
                0x0000000000000000       0x2e /opt/gcc-arm-none-eabi-10.3-2021.07/bin/../lib/gcc/arm-none-eabi/10.3.1/../../../../arm-none-eabi/lib/thumb/v7e-m/nofp/libc.a(lib_a-s_frexp.o)
 .text          0x0000000000000000        0x0 /opt/gcc-arm-none-eabi-10.3-2021.07/bin/../lib/gcc/arm-none-eabi/10.3.1/../../../../arm-none-eabi/lib/thumb/v7e-m/nofp/libc.a(lib_a-stdio.o)
 .data          0x0000000000000000        0x0 /opt/gcc-arm-none-eabi-10.3-2021.07/bin/../lib/gcc/arm-none-eabi/10.3.1/../../../../arm-none-eabi/lib/thumb/v7e-m/nofp/libc.a(lib_a-stdio.o)
 .bss           0x0000000000000000        0x0 /opt/gcc-arm-none-eabi-10.3-2021.07/bin/../lib/gcc/arm-none-eabi/10.3.1/../../../../arm-none-eabi/lib/thumb/v7e-m/nofp/libc.a(lib_a-stdio.o)
 .text.__seofread
                0x0000000000000000        0x4 /opt/gcc-arm-none-eabi-10.3-2021.07/bin/../lib/gcc/arm-none-eabi/10.3.1/../../../../arm-none-eabi/lib/thumb/v7e-m/nofp/libc.a(lib_a-stdio.o)
 .debug_frame   0x0000000000000000       0x8c /opt/gcc-arm-none-eabi-10.3-2021.07/bin/../lib/gcc/arm-none-eabi/10.3.1/../../../../arm-none-eabi/lib/thumb/v7e-m/nofp/libc.a(lib_a-stdio.o)
 .ARM.attributes
                0x0000000000000000       0x2e /opt/gcc-arm-none-eabi-10.3-2021.07/bin/../lib/gcc/arm-none-eabi/10.3.1/../../../../arm-none-eabi/lib/thumb/v7e-m/nofp/libc.a(lib_a-stdio.o)
 .text          0x0000000000000000        0x0 /opt/gcc-arm-none-eabi-10.3-2021.07/bin/../lib/gcc/arm-none-eabi/10.3.1/../../../../arm-none-eabi/lib/thumb/v7e-m/nofp/libc.a(lib_a-vfiprintf.o)
 .data          0x0000000000000000        0x0 /opt/gcc-arm-none-eabi-10.3-2021.07/bin/../lib/gcc/arm-none-eabi/10.3.1/../../../../arm-none-eabi/lib/thumb/v7e-m/nofp/libc.a(lib_a-vfiprintf.o)
 .bss           0x0000000000000000        0x0 /opt/gcc-arm-none-eabi-10.3-2021.07/bin/../lib/gcc/arm-none-eabi/10.3.1/../../../../arm-none-eabi/lib/thumb/v7e-m/nofp/libc.a(lib_a-vfiprintf.o)
 .text.vfiprintf
                0x0000000000000000       0x18 /opt/gcc-arm-none-eabi-10.3-2021.07/bin/../lib/gcc/arm-none-eabi/10.3.1/../../../../arm-none-eabi/lib/thumb/v7e-m/nofp/libc.a(lib_a-vfiprintf.o)
 .debug_frame   0x0000000000000000       0xdc /opt/gcc-arm-none-eabi-10.3-2021.07/bin/../lib/gcc/arm-none-eabi/10.3.1/../../../../arm-none-eabi/lib/thumb/v7e-m/nofp/libc.a(lib_a-vfiprintf.o)
 .ARM.attributes
                0x0000000000000000       0x2e /opt/gcc-arm-none-eabi-10.3-2021.07/bin/../lib/gcc/arm-none-eabi/10.3.1/../../../../arm-none-eabi/lib/thumb/v7e-m/nofp/libc.a(lib_a-vfiprintf.o)
 .text          0x0000000000000000        0x0 /opt/gcc-arm-none-eabi-10.3-2021.07/bin/../lib/gcc/arm-none-eabi/10.3.1/../../../../arm-none-eabi/lib/thumb/v7e-m/nofp/libc.a(lib_a-writer.o)
 .data          0x0000000000000000        0x0 /opt/gcc-arm-none-eabi-10.3-2021.07/bin/../lib/gcc/arm-none-eabi/10.3.1/../../../../arm-none-eabi/lib/thumb/v7e-m/nofp/libc.a(lib_a-writer.o)
 .bss           0x0000000000000000        0x0 /opt/gcc-arm-none-eabi-10.3-2021.07/bin/../lib/gcc/arm-none-eabi/10.3.1/../../../../arm-none-eabi/lib/thumb/v7e-m/nofp/libc.a(lib_a-writer.o)
 .debug_frame   0x0000000000000000       0x2c /opt/gcc-arm-none-eabi-10.3-2021.07/bin/../lib/gcc/arm-none-eabi/10.3.1/../../../../arm-none-eabi/lib/thumb/v7e-m/nofp/libc.a(lib_a-writer.o)
 .ARM.attributes
                0x0000000000000000       0x2e /opt/gcc-arm-none-eabi-10.3-2021.07/bin/../lib/gcc/arm-none-eabi/10.3.1/../../../../arm-none-eabi/lib/thumb/v7e-m/nofp/libc.a(lib_a-writer.o)
 .text          0x0000000000000000        0x0 /opt/gcc-arm-none-eabi-10.3-2021.07/bin/../lib/gcc/arm-none-eabi/10.3.1/../../../../arm-none-eabi/lib/thumb/v7e-m/nofp/libc.a(lib_a-assert.o)
 .data          0x0000000000000000        0x0 /opt/gcc-arm-none-eabi-10.3-2021.07/bin/../lib/gcc/arm-none-eabi/10.3.1/../../../../arm-none-eabi/lib/thumb/v7e-m/nofp/libc.a(lib_a-assert.o)
 .bss           0x0000000000000000        0x0 /opt/gcc-arm-none-eabi-10.3-2021.07/bin/../lib/gcc/arm-none-eabi/10.3.1/../../../../arm-none-eabi/lib/thumb/v7e-m/nofp/libc.a(lib_a-assert.o)
 .text.__assert
                0x0000000000000000        0xc /opt/gcc-arm-none-eabi-10.3-2021.07/bin/../lib/gcc/arm-none-eabi/10.3.1/../../../../arm-none-eabi/lib/thumb/v7e-m/nofp/libc.a(lib_a-assert.o)
 .debug_frame   0x0000000000000000       0x40 /opt/gcc-arm-none-eabi-10.3-2021.07/bin/../lib/gcc/arm-none-eabi/10.3.1/../../../../arm-none-eabi/lib/thumb/v7e-m/nofp/libc.a(lib_a-assert.o)
 .ARM.attributes
                0x0000000000000000       0x2e /opt/gcc-arm-none-eabi-10.3-2021.07/bin/../lib/gcc/arm-none-eabi/10.3.1/../../../../arm-none-eabi/lib/thumb/v7e-m/nofp/libc.a(lib_a-assert.o)
 .text          0x0000000000000000        0x0 /opt/gcc-arm-none-eabi-10.3-2021.07/bin/../lib/gcc/arm-none-eabi/10.3.1/../../../../arm-none-eabi/lib/thumb/v7e-m/nofp/libc.a(lib_a-callocr.o)
 .data          0x0000000000000000        0x0 /opt/gcc-arm-none-eabi-10.3-2021.07/bin/../lib/gcc/arm-none-eabi/10.3.1/../../../../arm-none-eabi/lib/thumb/v7e-m/nofp/libc.a(lib_a-callocr.o)
 .bss           0x0000000000000000        0x0 /opt/gcc-arm-none-eabi-10.3-2021.07/bin/../lib/gcc/arm-none-eabi/10.3.1/../../../../arm-none-eabi/lib/thumb/v7e-m/nofp/libc.a(lib_a-callocr.o)
 .debug_frame   0x0000000000000000       0x2c /opt/gcc-arm-none-eabi-10.3-2021.07/bin/../lib/gcc/arm-none-eabi/10.3.1/../../../../arm-none-eabi/lib/thumb/v7e-m/nofp/libc.a(lib_a-callocr.o)
 .ARM.attributes
                0x0000000000000000       0x2e /opt/gcc-arm-none-eabi-10.3-2021.07/bin/../lib/gcc/arm-none-eabi/10.3.1/../../../../arm-none-eabi/lib/thumb/v7e-m/nofp/libc.a(lib_a-callocr.o)
 .text          0x0000000000000000        0x0 /opt/gcc-arm-none-eabi-10.3-2021.07/bin/../lib/gcc/arm-none-eabi/10.3.1/../../../../arm-none-eabi/lib/thumb/v7e-m/nofp/libc.a(lib_a-closer.o)
 .data          0x0000000000000000        0x0 /opt/gcc-arm-none-eabi-10.3-2021.07/bin/../lib/gcc/arm-none-eabi/10.3.1/../../../../arm-none-eabi/lib/thumb/v7e-m/nofp/libc.a(lib_a-closer.o)
 .bss           0x0000000000000000        0x0 /opt/gcc-arm-none-eabi-10.3-2021.07/bin/../lib/gcc/arm-none-eabi/10.3.1/../../../../arm-none-eabi/lib/thumb/v7e-m/nofp/libc.a(lib_a-closer.o)
 .debug_frame   0x0000000000000000       0x2c /opt/gcc-arm-none-eabi-10.3-2021.07/bin/../lib/gcc/arm-none-eabi/10.3.1/../../../../arm-none-eabi/lib/thumb/v7e-m/nofp/libc.a(lib_a-closer.o)
 .ARM.attributes
                0x0000000000000000       0x2e /opt/gcc-arm-none-eabi-10.3-2021.07/bin/../lib/gcc/arm-none-eabi/10.3.1/../../../../arm-none-eabi/lib/thumb/v7e-m/nofp/libc.a(lib_a-closer.o)
 .text          0x0000000000000000        0x0 /opt/gcc-arm-none-eabi-10.3-2021.07/bin/../lib/gcc/arm-none-eabi/10.3.1/../../../../arm-none-eabi/lib/thumb/v7e-m/nofp/libc.a(lib_a-errno.o)
 .data          0x0000000000000000        0x0 /opt/gcc-arm-none-eabi-10.3-2021.07/bin/../lib/gcc/arm-none-eabi/10.3.1/../../../../arm-none-eabi/lib/thumb/v7e-m/nofp/libc.a(lib_a-errno.o)
 .bss           0x0000000000000000        0x0 /opt/gcc-arm-none-eabi-10.3-2021.07/bin/../lib/gcc/arm-none-eabi/10.3.1/../../../../arm-none-eabi/lib/thumb/v7e-m/nofp/libc.a(lib_a-errno.o)
 .debug_frame   0x0000000000000000       0x20 /opt/gcc-arm-none-eabi-10.3-2021.07/bin/../lib/gcc/arm-none-eabi/10.3.1/../../../../arm-none-eabi/lib/thumb/v7e-m/nofp/libc.a(lib_a-errno.o)
 .ARM.attributes
                0x0000000000000000       0x2e /opt/gcc-arm-none-eabi-10.3-2021.07/bin/../lib/gcc/arm-none-eabi/10.3.1/../../../../arm-none-eabi/lib/thumb/v7e-m/nofp/libc.a(lib_a-errno.o)
 .text          0x0000000000000000        0x0 /opt/gcc-arm-none-eabi-10.3-2021.07/bin/../lib/gcc/arm-none-eabi/10.3.1/../../../../arm-none-eabi/lib/thumb/v7e-m/nofp/libc.a(lib_a-fclose.o)
 .data          0x0000000000000000        0x0 /opt/gcc-arm-none-eabi-10.3-2021.07/bin/../lib/gcc/arm-none-eabi/10.3.1/../../../../arm-none-eabi/lib/thumb/v7e-m/nofp/libc.a(lib_a-fclose.o)
 .bss           0x0000000000000000        0x0 /opt/gcc-arm-none-eabi-10.3-2021.07/bin/../lib/gcc/arm-none-eabi/10.3.1/../../../../arm-none-eabi/lib/thumb/v7e-m/nofp/libc.a(lib_a-fclose.o)
 .text.fclose   0x0000000000000000       0x10 /opt/gcc-arm-none-eabi-10.3-2021.07/bin/../lib/gcc/arm-none-eabi/10.3.1/../../../../arm-none-eabi/lib/thumb/v7e-m/nofp/libc.a(lib_a-fclose.o)
 .debug_frame   0x0000000000000000       0x3c /opt/gcc-arm-none-eabi-10.3-2021.07/bin/../lib/gcc/arm-none-eabi/10.3.1/../../../../arm-none-eabi/lib/thumb/v7e-m/nofp/libc.a(lib_a-fclose.o)
 .ARM.attributes
                0x0000000000000000       0x2e /opt/gcc-arm-none-eabi-10.3-2021.07/bin/../lib/gcc/arm-none-eabi/10.3.1/../../../../arm-none-eabi/lib/thumb/v7e-m/nofp/libc.a(lib_a-fclose.o)
 .text          0x0000000000000000        0x0 /opt/gcc-arm-none-eabi-10.3-2021.07/bin/../lib/gcc/arm-none-eabi/10.3.1/../../../../arm-none-eabi/lib/thumb/v7e-m/nofp/libc.a(lib_a-fiprintf.o)
 .data          0x0000000000000000        0x0 /opt/gcc-arm-none-eabi-10.3-2021.07/bin/../lib/gcc/arm-none-eabi/10.3.1/../../../../arm-none-eabi/lib/thumb/v7e-m/nofp/libc.a(lib_a-fiprintf.o)
 .bss           0x0000000000000000        0x0 /opt/gcc-arm-none-eabi-10.3-2021.07/bin/../lib/gcc/arm-none-eabi/10.3.1/../../../../arm-none-eabi/lib/thumb/v7e-m/nofp/libc.a(lib_a-fiprintf.o)
 .text._fiprintf_r
                0x0000000000000000       0x1c /opt/gcc-arm-none-eabi-10.3-2021.07/bin/../lib/gcc/arm-none-eabi/10.3.1/../../../../arm-none-eabi/lib/thumb/v7e-m/nofp/libc.a(lib_a-fiprintf.o)
 .debug_frame   0x0000000000000000       0x70 /opt/gcc-arm-none-eabi-10.3-2021.07/bin/../lib/gcc/arm-none-eabi/10.3.1/../../../../arm-none-eabi/lib/thumb/v7e-m/nofp/libc.a(lib_a-fiprintf.o)
 .ARM.attributes
                0x0000000000000000       0x2e /opt/gcc-arm-none-eabi-10.3-2021.07/bin/../lib/gcc/arm-none-eabi/10.3.1/../../../../arm-none-eabi/lib/thumb/v7e-m/nofp/libc.a(lib_a-fiprintf.o)
 .text          0x0000000000000000        0x0 /opt/gcc-arm-none-eabi-10.3-2021.07/bin/../lib/gcc/arm-none-eabi/10.3.1/../../../../arm-none-eabi/lib/thumb/v7e-m/nofp/libc.a(lib_a-fputwc.o)
 .data          0x0000000000000000        0x0 /opt/gcc-arm-none-eabi-10.3-2021.07/bin/../lib/gcc/arm-none-eabi/10.3.1/../../../../arm-none-eabi/lib/thumb/v7e-m/nofp/libc.a(lib_a-fputwc.o)
 .bss           0x0000000000000000        0x0 /opt/gcc-arm-none-eabi-10.3-2021.07/bin/../lib/gcc/arm-none-eabi/10.3.1/../../../../arm-none-eabi/lib/thumb/v7e-m/nofp/libc.a(lib_a-fputwc.o)
 .text.fputwc   0x0000000000000000       0x74 /opt/gcc-arm-none-eabi-10.3-2021.07/bin/../lib/gcc/arm-none-eabi/10.3.1/../../../../arm-none-eabi/lib/thumb/v7e-m/nofp/libc.a(lib_a-fputwc.o)
 .debug_frame   0x0000000000000000       0x88 /opt/gcc-arm-none-eabi-10.3-2021.07/bin/../lib/gcc/arm-none-eabi/10.3.1/../../../../arm-none-eabi/lib/thumb/v7e-m/nofp/libc.a(lib_a-fputwc.o)
 .ARM.attributes
                0x0000000000000000       0x2e /opt/gcc-arm-none-eabi-10.3-2021.07/bin/../lib/gcc/arm-none-eabi/10.3.1/../../../../arm-none-eabi/lib/thumb/v7e-m/nofp/libc.a(lib_a-fputwc.o)
 .text          0x0000000000000000        0x0 /opt/gcc-arm-none-eabi-10.3-2021.07/bin/../lib/gcc/arm-none-eabi/10.3.1/../../../../arm-none-eabi/lib/thumb/v7e-m/nofp/libc.a(lib_a-fstatr.o)
 .data          0x0000000000000000        0x0 /opt/gcc-arm-none-eabi-10.3-2021.07/bin/../lib/gcc/arm-none-eabi/10.3.1/../../../../arm-none-eabi/lib/thumb/v7e-m/nofp/libc.a(lib_a-fstatr.o)
 .bss           0x0000000000000000        0x0 /opt/gcc-arm-none-eabi-10.3-2021.07/bin/../lib/gcc/arm-none-eabi/10.3.1/../../../../arm-none-eabi/lib/thumb/v7e-m/nofp/libc.a(lib_a-fstatr.o)
 .debug_frame   0x0000000000000000       0x2c /opt/gcc-arm-none-eabi-10.3-2021.07/bin/../lib/gcc/arm-none-eabi/10.3.1/../../../../arm-none-eabi/lib/thumb/v7e-m/nofp/libc.a(lib_a-fstatr.o)
 .ARM.attributes
                0x0000000000000000       0x2e /opt/gcc-arm-none-eabi-10.3-2021.07/bin/../lib/gcc/arm-none-eabi/10.3.1/../../../../arm-none-eabi/lib/thumb/v7e-m/nofp/libc.a(lib_a-fstatr.o)
 .text          0x0000000000000000        0x0 /opt/gcc-arm-none-eabi-10.3-2021.07/bin/../lib/gcc/arm-none-eabi/10.3.1/../../../../arm-none-eabi/lib/thumb/v7e-m/nofp/libc.a(lib_a-fvwrite.o)
 .data          0x0000000000000000        0x0 /opt/gcc-arm-none-eabi-10.3-2021.07/bin/../lib/gcc/arm-none-eabi/10.3.1/../../../../arm-none-eabi/lib/thumb/v7e-m/nofp/libc.a(lib_a-fvwrite.o)
 .bss           0x0000000000000000        0x0 /opt/gcc-arm-none-eabi-10.3-2021.07/bin/../lib/gcc/arm-none-eabi/10.3.1/../../../../arm-none-eabi/lib/thumb/v7e-m/nofp/libc.a(lib_a-fvwrite.o)
 .debug_frame   0x0000000000000000       0x64 /opt/gcc-arm-none-eabi-10.3-2021.07/bin/../lib/gcc/arm-none-eabi/10.3.1/../../../../arm-none-eabi/lib/thumb/v7e-m/nofp/libc.a(lib_a-fvwrite.o)
 .ARM.attributes
                0x0000000000000000       0x2e /opt/gcc-arm-none-eabi-10.3-2021.07/bin/../lib/gcc/arm-none-eabi/10.3.1/../../../../arm-none-eabi/lib/thumb/v7e-m/nofp/libc.a(lib_a-fvwrite.o)
 .text          0x0000000000000000        0x0 /opt/gcc-arm-none-eabi-10.3-2021.07/bin/../lib/gcc/arm-none-eabi/10.3.1/../../../../arm-none-eabi/lib/thumb/v7e-m/nofp/libc.a(lib_a-isattyr.o)
 .data          0x0000000000000000        0x0 /opt/gcc-arm-none-eabi-10.3-2021.07/bin/../lib/gcc/arm-none-eabi/10.3.1/../../../../arm-none-eabi/lib/thumb/v7e-m/nofp/libc.a(lib_a-isattyr.o)
 .bss           0x0000000000000000        0x0 /opt/gcc-arm-none-eabi-10.3-2021.07/bin/../lib/gcc/arm-none-eabi/10.3.1/../../../../arm-none-eabi/lib/thumb/v7e-m/nofp/libc.a(lib_a-isattyr.o)
 .debug_frame   0x0000000000000000       0x2c /opt/gcc-arm-none-eabi-10.3-2021.07/bin/../lib/gcc/arm-none-eabi/10.3.1/../../../../arm-none-eabi/lib/thumb/v7e-m/nofp/libc.a(lib_a-isattyr.o)
 .ARM.attributes
                0x0000000000000000       0x2e /opt/gcc-arm-none-eabi-10.3-2021.07/bin/../lib/gcc/arm-none-eabi/10.3.1/../../../../arm-none-eabi/lib/thumb/v7e-m/nofp/libc.a(lib_a-isattyr.o)
 .text          0x0000000000000000        0x0 /opt/gcc-arm-none-eabi-10.3-2021.07/bin/../lib/gcc/arm-none-eabi/10.3.1/../../../../arm-none-eabi/lib/thumb/v7e-m/nofp/libc.a(lib_a-locale.o)
 .data          0x0000000000000000        0x0 /opt/gcc-arm-none-eabi-10.3-2021.07/bin/../lib/gcc/arm-none-eabi/10.3.1/../../../../arm-none-eabi/lib/thumb/v7e-m/nofp/libc.a(lib_a-locale.o)
 .bss           0x0000000000000000        0x0 /opt/gcc-arm-none-eabi-10.3-2021.07/bin/../lib/gcc/arm-none-eabi/10.3.1/../../../../arm-none-eabi/lib/thumb/v7e-m/nofp/libc.a(lib_a-locale.o)
 .text._setlocale_r
                0x0000000000000000       0x40 /opt/gcc-arm-none-eabi-10.3-2021.07/bin/../lib/gcc/arm-none-eabi/10.3.1/../../../../arm-none-eabi/lib/thumb/v7e-m/nofp/libc.a(lib_a-locale.o)
 .text.setlocale
                0x0000000000000000       0x40 /opt/gcc-arm-none-eabi-10.3-2021.07/bin/../lib/gcc/arm-none-eabi/10.3.1/../../../../arm-none-eabi/lib/thumb/v7e-m/nofp/libc.a(lib_a-locale.o)
 .bss._PathLocale
                0x0000000000000000        0x4 /opt/gcc-arm-none-eabi-10.3-2021.07/bin/../lib/gcc/arm-none-eabi/10.3.1/../../../../arm-none-eabi/lib/thumb/v7e-m/nofp/libc.a(lib_a-locale.o)
 .debug_frame   0x0000000000000000       0x68 /opt/gcc-arm-none-eabi-10.3-2021.07/bin/../lib/gcc/arm-none-eabi/10.3.1/../../../../arm-none-eabi/lib/thumb/v7e-m/nofp/libc.a(lib_a-locale.o)
 .ARM.attributes
                0x0000000000000000       0x2e /opt/gcc-arm-none-eabi-10.3-2021.07/bin/../lib/gcc/arm-none-eabi/10.3.1/../../../../arm-none-eabi/lib/thumb/v7e-m/nofp/libc.a(lib_a-locale.o)
 .text          0x0000000000000000        0x0 /opt/gcc-arm-none-eabi-10.3-2021.07/bin/../lib/gcc/arm-none-eabi/10.3.1/../../../../arm-none-eabi/lib/thumb/v7e-m/nofp/libc.a(lib_a-lseekr.o)
 .data          0x0000000000000000        0x0 /opt/gcc-arm-none-eabi-10.3-2021.07/bin/../lib/gcc/arm-none-eabi/10.3.1/../../../../arm-none-eabi/lib/thumb/v7e-m/nofp/libc.a(lib_a-lseekr.o)
 .bss           0x0000000000000000        0x0 /opt/gcc-arm-none-eabi-10.3-2021.07/bin/../lib/gcc/arm-none-eabi/10.3.1/../../../../arm-none-eabi/lib/thumb/v7e-m/nofp/libc.a(lib_a-lseekr.o)
 .debug_frame   0x0000000000000000       0x2c /opt/gcc-arm-none-eabi-10.3-2021.07/bin/../lib/gcc/arm-none-eabi/10.3.1/../../../../arm-none-eabi/lib/thumb/v7e-m/nofp/libc.a(lib_a-lseekr.o)
 .ARM.attributes
                0x0000000000000000       0x2e /opt/gcc-arm-none-eabi-10.3-2021.07/bin/../lib/gcc/arm-none-eabi/10.3.1/../../../../arm-none-eabi/lib/thumb/v7e-m/nofp/libc.a(lib_a-lseekr.o)
 .text          0x0000000000000000        0x0 /opt/gcc-arm-none-eabi-10.3-2021.07/bin/../lib/gcc/arm-none-eabi/10.3.1/../../../../arm-none-eabi/lib/thumb/v7e-m/nofp/libc.a(lib_a-mbtowc_r.o)
 .data          0x0000000000000000        0x0 /opt/gcc-arm-none-eabi-10.3-2021.07/bin/../lib/gcc/arm-none-eabi/10.3.1/../../../../arm-none-eabi/lib/thumb/v7e-m/nofp/libc.a(lib_a-mbtowc_r.o)
 .bss           0x0000000000000000        0x0 /opt/gcc-arm-none-eabi-10.3-2021.07/bin/../lib/gcc/arm-none-eabi/10.3.1/../../../../arm-none-eabi/lib/thumb/v7e-m/nofp/libc.a(lib_a-mbtowc_r.o)
 .text._mbtowc_r
                0x0000000000000000       0x14 /opt/gcc-arm-none-eabi-10.3-2021.07/bin/../lib/gcc/arm-none-eabi/10.3.1/../../../../arm-none-eabi/lib/thumb/v7e-m/nofp/libc.a(lib_a-mbtowc_r.o)
 .debug_frame   0x0000000000000000       0x4c /opt/gcc-arm-none-eabi-10.3-2021.07/bin/../lib/gcc/arm-none-eabi/10.3.1/../../../../arm-none-eabi/lib/thumb/v7e-m/nofp/libc.a(lib_a-mbtowc_r.o)
 .ARM.attributes
                0x0000000000000000       0x2e /opt/gcc-arm-none-eabi-10.3-2021.07/bin/../lib/gcc/arm-none-eabi/10.3.1/../../../../arm-none-eabi/lib/thumb/v7e-m/nofp/libc.a(lib_a-mbtowc_r.o)
 .text          0x0000000000000000        0x0 /opt/gcc-arm-none-eabi-10.3-2021.07/bin/../lib/gcc/arm-none-eabi/10.3.1/../../../../arm-none-eabi/lib/thumb/v7e-m/nofp/libc.a(lib_a-memmove.o)
 .data          0x0000000000000000        0x0 /opt/gcc-arm-none-eabi-10.3-2021.07/bin/../lib/gcc/arm-none-eabi/10.3.1/../../../../arm-none-eabi/lib/thumb/v7e-m/nofp/libc.a(lib_a-memmove.o)
 .bss           0x0000000000000000        0x0 /opt/gcc-arm-none-eabi-10.3-2021.07/bin/../lib/gcc/arm-none-eabi/10.3.1/../../../../arm-none-eabi/lib/thumb/v7e-m/nofp/libc.a(lib_a-memmove.o)
 .debug_frame   0x0000000000000000       0x40 /opt/gcc-arm-none-eabi-10.3-2021.07/bin/../lib/gcc/arm-none-eabi/10.3.1/../../../../arm-none-eabi/lib/thumb/v7e-m/nofp/libc.a(lib_a-memmove.o)
 .ARM.attributes
                0x0000000000000000       0x2e /opt/gcc-arm-none-eabi-10.3-2021.07/bin/../lib/gcc/arm-none-eabi/10.3.1/../../../../arm-none-eabi/lib/thumb/v7e-m/nofp/libc.a(lib_a-memmove.o)
 .text          0x0000000000000000        0x0 /opt/gcc-arm-none-eabi-10.3-2021.07/bin/../lib/gcc/arm-none-eabi/10.3.1/../../../../arm-none-eabi/lib/thumb/v7e-m/nofp/libc.a(lib_a-readr.o)
 .data          0x0000000000000000        0x0 /opt/gcc-arm-none-eabi-10.3-2021.07/bin/../lib/gcc/arm-none-eabi/10.3.1/../../../../arm-none-eabi/lib/thumb/v7e-m/nofp/libc.a(lib_a-readr.o)
 .bss           0x0000000000000000        0x0 /opt/gcc-arm-none-eabi-10.3-2021.07/bin/../lib/gcc/arm-none-eabi/10.3.1/../../../../arm-none-eabi/lib/thumb/v7e-m/nofp/libc.a(lib_a-readr.o)
 .debug_frame   0x0000000000000000       0x2c /opt/gcc-arm-none-eabi-10.3-2021.07/bin/../lib/gcc/arm-none-eabi/10.3.1/../../../../arm-none-eabi/lib/thumb/v7e-m/nofp/libc.a(lib_a-readr.o)
 .ARM.attributes
                0x0000000000000000       0x2e /opt/gcc-arm-none-eabi-10.3-2021.07/bin/../lib/gcc/arm-none-eabi/10.3.1/../../../../arm-none-eabi/lib/thumb/v7e-m/nofp/libc.a(lib_a-readr.o)
 .text          0x0000000000000000        0x0 /opt/gcc-arm-none-eabi-10.3-2021.07/bin/../lib/gcc/arm-none-eabi/10.3.1/../../../../arm-none-eabi/lib/thumb/v7e-m/nofp/libc.a(lib_a-reallocr.o)
 .data          0x0000000000000000        0x0 /opt/gcc-arm-none-eabi-10.3-2021.07/bin/../lib/gcc/arm-none-eabi/10.3.1/../../../../arm-none-eabi/lib/thumb/v7e-m/nofp/libc.a(lib_a-reallocr.o)
 .bss           0x0000000000000000        0x0 /opt/gcc-arm-none-eabi-10.3-2021.07/bin/../lib/gcc/arm-none-eabi/10.3.1/../../../../arm-none-eabi/lib/thumb/v7e-m/nofp/libc.a(lib_a-reallocr.o)
 .debug_frame   0x0000000000000000       0x48 /opt/gcc-arm-none-eabi-10.3-2021.07/bin/../lib/gcc/arm-none-eabi/10.3.1/../../../../arm-none-eabi/lib/thumb/v7e-m/nofp/libc.a(lib_a-reallocr.o)
 .ARM.attributes
                0x0000000000000000       0x2e /opt/gcc-arm-none-eabi-10.3-2021.07/bin/../lib/gcc/arm-none-eabi/10.3.1/../../../../arm-none-eabi/lib/thumb/v7e-m/nofp/libc.a(lib_a-reallocr.o)
 .text          0x0000000000000000      0x2dc /opt/gcc-arm-none-eabi-10.3-2021.07/bin/../lib/gcc/arm-none-eabi/10.3.1/../../../../arm-none-eabi/lib/thumb/v7e-m/nofp/libc.a(lib_a-strcmp.o)
 .data          0x0000000000000000        0x0 /opt/gcc-arm-none-eabi-10.3-2021.07/bin/../lib/gcc/arm-none-eabi/10.3.1/../../../../arm-none-eabi/lib/thumb/v7e-m/nofp/libc.a(lib_a-strcmp.o)
 .bss           0x0000000000000000        0x0 /opt/gcc-arm-none-eabi-10.3-2021.07/bin/../lib/gcc/arm-none-eabi/10.3.1/../../../../arm-none-eabi/lib/thumb/v7e-m/nofp/libc.a(lib_a-strcmp.o)
 .debug_frame   0x0000000000000000       0x68 /opt/gcc-arm-none-eabi-10.3-2021.07/bin/../lib/gcc/arm-none-eabi/10.3.1/../../../../arm-none-eabi/lib/thumb/v7e-m/nofp/libc.a(lib_a-strcmp.o)
 .ARM.attributes
                0x0000000000000000       0x1c /opt/gcc-arm-none-eabi-10.3-2021.07/bin/../lib/gcc/arm-none-eabi/10.3.1/../../../../arm-none-eabi/lib/thumb/v7e-m/nofp/libc.a(lib_a-strcmp.o)
 .text          0x0000000000000000        0x0 /opt/gcc-arm-none-eabi-10.3-2021.07/bin/../lib/gcc/arm-none-eabi/10.3.1/../../../../arm-none-eabi/lib/thumb/v7e-m/nofp/libc.a(lib_a-wbuf.o)
 .data          0x0000000000000000        0x0 /opt/gcc-arm-none-eabi-10.3-2021.07/bin/../lib/gcc/arm-none-eabi/10.3.1/../../../../arm-none-eabi/lib/thumb/v7e-m/nofp/libc.a(lib_a-wbuf.o)
 .bss           0x0000000000000000        0x0 /opt/gcc-arm-none-eabi-10.3-2021.07/bin/../lib/gcc/arm-none-eabi/10.3.1/../../../../arm-none-eabi/lib/thumb/v7e-m/nofp/libc.a(lib_a-wbuf.o)
 .text.__swbuf  0x0000000000000000       0x18 /opt/gcc-arm-none-eabi-10.3-2021.07/bin/../lib/gcc/arm-none-eabi/10.3.1/../../../../arm-none-eabi/lib/thumb/v7e-m/nofp/libc.a(lib_a-wbuf.o)
 .debug_frame   0x0000000000000000       0x4c /opt/gcc-arm-none-eabi-10.3-2021.07/bin/../lib/gcc/arm-none-eabi/10.3.1/../../../../arm-none-eabi/lib/thumb/v7e-m/nofp/libc.a(lib_a-wbuf.o)
 .ARM.attributes
                0x0000000000000000       0x2e /opt/gcc-arm-none-eabi-10.3-2021.07/bin/../lib/gcc/arm-none-eabi/10.3.1/../../../../arm-none-eabi/lib/thumb/v7e-m/nofp/libc.a(lib_a-wbuf.o)
 .text          0x0000000000000000        0x0 /opt/gcc-arm-none-eabi-10.3-2021.07/bin/../lib/gcc/arm-none-eabi/10.3.1/../../../../arm-none-eabi/lib/thumb/v7e-m/nofp/libc.a(lib_a-wcrtomb.o)
 .data          0x0000000000000000        0x0 /opt/gcc-arm-none-eabi-10.3-2021.07/bin/../lib/gcc/arm-none-eabi/10.3.1/../../../../arm-none-eabi/lib/thumb/v7e-m/nofp/libc.a(lib_a-wcrtomb.o)
 .bss           0x0000000000000000        0x0 /opt/gcc-arm-none-eabi-10.3-2021.07/bin/../lib/gcc/arm-none-eabi/10.3.1/../../../../arm-none-eabi/lib/thumb/v7e-m/nofp/libc.a(lib_a-wcrtomb.o)
 .text.wcrtomb  0x0000000000000000       0x50 /opt/gcc-arm-none-eabi-10.3-2021.07/bin/../lib/gcc/arm-none-eabi/10.3.1/../../../../arm-none-eabi/lib/thumb/v7e-m/nofp/libc.a(lib_a-wcrtomb.o)
 .debug_frame   0x0000000000000000       0x60 /opt/gcc-arm-none-eabi-10.3-2021.07/bin/../lib/gcc/arm-none-eabi/10.3.1/../../../../arm-none-eabi/lib/thumb/v7e-m/nofp/libc.a(lib_a-wcrtomb.o)
 .ARM.attributes
                0x0000000000000000       0x2e /opt/gcc-arm-none-eabi-10.3-2021.07/bin/../lib/gcc/arm-none-eabi/10.3.1/../../../../arm-none-eabi/lib/thumb/v7e-m/nofp/libc.a(lib_a-wcrtomb.o)
 .text          0x0000000000000000        0x0 /opt/gcc-arm-none-eabi-10.3-2021.07/bin/../lib/gcc/arm-none-eabi/10.3.1/../../../../arm-none-eabi/lib/thumb/v7e-m/nofp/libc.a(lib_a-wctomb_r.o)
 .data          0x0000000000000000        0x0 /opt/gcc-arm-none-eabi-10.3-2021.07/bin/../lib/gcc/arm-none-eabi/10.3.1/../../../../arm-none-eabi/lib/thumb/v7e-m/nofp/libc.a(lib_a-wctomb_r.o)
 .bss           0x0000000000000000        0x0 /opt/gcc-arm-none-eabi-10.3-2021.07/bin/../lib/gcc/arm-none-eabi/10.3.1/../../../../arm-none-eabi/lib/thumb/v7e-m/nofp/libc.a(lib_a-wctomb_r.o)
 .text._wctomb_r
                0x0000000000000000       0x14 /opt/gcc-arm-none-eabi-10.3-2021.07/bin/../lib/gcc/arm-none-eabi/10.3.1/../../../../arm-none-eabi/lib/thumb/v7e-m/nofp/libc.a(lib_a-wctomb_r.o)
 .debug_frame   0x0000000000000000       0x3c /opt/gcc-arm-none-eabi-10.3-2021.07/bin/../lib/gcc/arm-none-eabi/10.3.1/../../../../arm-none-eabi/lib/thumb/v7e-m/nofp/libc.a(lib_a-wctomb_r.o)
 .ARM.attributes
                0x0000000000000000       0x2e /opt/gcc-arm-none-eabi-10.3-2021.07/bin/../lib/gcc/arm-none-eabi/10.3.1/../../../../arm-none-eabi/lib/thumb/v7e-m/nofp/libc.a(lib_a-wctomb_r.o)
 .text          0x0000000000000000        0x0 /opt/gcc-arm-none-eabi-10.3-2021.07/bin/../lib/gcc/arm-none-eabi/10.3.1/../../../../arm-none-eabi/lib/thumb/v7e-m/nofp/libc.a(lib_a-abort.o)
 .data          0x0000000000000000        0x0 /opt/gcc-arm-none-eabi-10.3-2021.07/bin/../lib/gcc/arm-none-eabi/10.3.1/../../../../arm-none-eabi/lib/thumb/v7e-m/nofp/libc.a(lib_a-abort.o)
 .bss           0x0000000000000000        0x0 /opt/gcc-arm-none-eabi-10.3-2021.07/bin/../lib/gcc/arm-none-eabi/10.3.1/../../../../arm-none-eabi/lib/thumb/v7e-m/nofp/libc.a(lib_a-abort.o)
 .debug_frame   0x0000000000000000       0x28 /opt/gcc-arm-none-eabi-10.3-2021.07/bin/../lib/gcc/arm-none-eabi/10.3.1/../../../../arm-none-eabi/lib/thumb/v7e-m/nofp/libc.a(lib_a-abort.o)
 .ARM.attributes
                0x0000000000000000       0x2e /opt/gcc-arm-none-eabi-10.3-2021.07/bin/../lib/gcc/arm-none-eabi/10.3.1/../../../../arm-none-eabi/lib/thumb/v7e-m/nofp/libc.a(lib_a-abort.o)
 .text          0x0000000000000000        0x0 /opt/gcc-arm-none-eabi-10.3-2021.07/bin/../lib/gcc/arm-none-eabi/10.3.1/../../../../arm-none-eabi/lib/thumb/v7e-m/nofp/libc.a(lib_a-ctype_.o)
 .data          0x0000000000000000        0x0 /opt/gcc-arm-none-eabi-10.3-2021.07/bin/../lib/gcc/arm-none-eabi/10.3.1/../../../../arm-none-eabi/lib/thumb/v7e-m/nofp/libc.a(lib_a-ctype_.o)
 .bss           0x0000000000000000        0x0 /opt/gcc-arm-none-eabi-10.3-2021.07/bin/../lib/gcc/arm-none-eabi/10.3.1/../../../../arm-none-eabi/lib/thumb/v7e-m/nofp/libc.a(lib_a-ctype_.o)
 .ARM.attributes
                0x0000000000000000       0x2e /opt/gcc-arm-none-eabi-10.3-2021.07/bin/../lib/gcc/arm-none-eabi/10.3.1/../../../../arm-none-eabi/lib/thumb/v7e-m/nofp/libc.a(lib_a-ctype_.o)
 .text          0x0000000000000000        0x0 /opt/gcc-arm-none-eabi-10.3-2021.07/bin/../lib/gcc/arm-none-eabi/10.3.1/../../../../arm-none-eabi/lib/thumb/v7e-m/nofp/libc.a(lib_a-signal.o)
 .data          0x0000000000000000        0x0 /opt/gcc-arm-none-eabi-10.3-2021.07/bin/../lib/gcc/arm-none-eabi/10.3.1/../../../../arm-none-eabi/lib/thumb/v7e-m/nofp/libc.a(lib_a-signal.o)
 .bss           0x0000000000000000        0x0 /opt/gcc-arm-none-eabi-10.3-2021.07/bin/../lib/gcc/arm-none-eabi/10.3.1/../../../../arm-none-eabi/lib/thumb/v7e-m/nofp/libc.a(lib_a-signal.o)
 .text._init_signal_r
                0x0000000000000000       0x30 /opt/gcc-arm-none-eabi-10.3-2021.07/bin/../lib/gcc/arm-none-eabi/10.3.1/../../../../arm-none-eabi/lib/thumb/v7e-m/nofp/libc.a(lib_a-signal.o)
 .text._signal_r
                0x0000000000000000       0x4c /opt/gcc-arm-none-eabi-10.3-2021.07/bin/../lib/gcc/arm-none-eabi/10.3.1/../../../../arm-none-eabi/lib/thumb/v7e-m/nofp/libc.a(lib_a-signal.o)
 .text._raise_r
                0x0000000000000000       0x58 /opt/gcc-arm-none-eabi-10.3-2021.07/bin/../lib/gcc/arm-none-eabi/10.3.1/../../../../arm-none-eabi/lib/thumb/v7e-m/nofp/libc.a(lib_a-signal.o)
 .text.__sigtramp_r
                0x0000000000000000       0x64 /opt/gcc-arm-none-eabi-10.3-2021.07/bin/../lib/gcc/arm-none-eabi/10.3.1/../../../../arm-none-eabi/lib/thumb/v7e-m/nofp/libc.a(lib_a-signal.o)
 .text.signal   0x0000000000000000       0x54 /opt/gcc-arm-none-eabi-10.3-2021.07/bin/../lib/gcc/arm-none-eabi/10.3.1/../../../../arm-none-eabi/lib/thumb/v7e-m/nofp/libc.a(lib_a-signal.o)
 .text._init_signal
                0x0000000000000000       0x38 /opt/gcc-arm-none-eabi-10.3-2021.07/bin/../lib/gcc/arm-none-eabi/10.3.1/../../../../arm-none-eabi/lib/thumb/v7e-m/nofp/libc.a(lib_a-signal.o)
 .text.__sigtramp
                0x0000000000000000       0x68 /opt/gcc-arm-none-eabi-10.3-2021.07/bin/../lib/gcc/arm-none-eabi/10.3.1/../../../../arm-none-eabi/lib/thumb/v7e-m/nofp/libc.a(lib_a-signal.o)
 .debug_frame   0x0000000000000000      0x114 /opt/gcc-arm-none-eabi-10.3-2021.07/bin/../lib/gcc/arm-none-eabi/10.3.1/../../../../arm-none-eabi/lib/thumb/v7e-m/nofp/libc.a(lib_a-signal.o)
 .ARM.attributes
                0x0000000000000000       0x2e /opt/gcc-arm-none-eabi-10.3-2021.07/bin/../lib/gcc/arm-none-eabi/10.3.1/../../../../arm-none-eabi/lib/thumb/v7e-m/nofp/libc.a(lib_a-signal.o)
 .text          0x0000000000000000        0x0 /opt/gcc-arm-none-eabi-10.3-2021.07/bin/../lib/gcc/arm-none-eabi/10.3.1/../../../../arm-none-eabi/lib/thumb/v7e-m/nofp/libc.a(lib_a-signalr.o)
 .data          0x0000000000000000        0x0 /opt/gcc-arm-none-eabi-10.3-2021.07/bin/../lib/gcc/arm-none-eabi/10.3.1/../../../../arm-none-eabi/lib/thumb/v7e-m/nofp/libc.a(lib_a-signalr.o)
 .bss           0x0000000000000000        0x0 /opt/gcc-arm-none-eabi-10.3-2021.07/bin/../lib/gcc/arm-none-eabi/10.3.1/../../../../arm-none-eabi/lib/thumb/v7e-m/nofp/libc.a(lib_a-signalr.o)
 .debug_frame   0x0000000000000000       0x3c /opt/gcc-arm-none-eabi-10.3-2021.07/bin/../lib/gcc/arm-none-eabi/10.3.1/../../../../arm-none-eabi/lib/thumb/v7e-m/nofp/libc.a(lib_a-signalr.o)
 .ARM.attributes
                0x0000000000000000       0x2e /opt/gcc-arm-none-eabi-10.3-2021.07/bin/../lib/gcc/arm-none-eabi/10.3.1/../../../../arm-none-eabi/lib/thumb/v7e-m/nofp/libc.a(lib_a-signalr.o)
 .text          0x0000000000000000      0x254 /opt/gcc-arm-none-eabi-10.3-2021.07/bin/../lib/gcc/arm-none-eabi/10.3.1/thumb/v7e-m/nofp/libgcc.a(_arm_muldf3.o)
 .data          0x0000000000000000        0x0 /opt/gcc-arm-none-eabi-10.3-2021.07/bin/../lib/gcc/arm-none-eabi/10.3.1/thumb/v7e-m/nofp/libgcc.a(_arm_muldf3.o)
 .bss           0x0000000000000000        0x0 /opt/gcc-arm-none-eabi-10.3-2021.07/bin/../lib/gcc/arm-none-eabi/10.3.1/thumb/v7e-m/nofp/libgcc.a(_arm_muldf3.o)
 .debug_frame   0x0000000000000000       0x30 /opt/gcc-arm-none-eabi-10.3-2021.07/bin/../lib/gcc/arm-none-eabi/10.3.1/thumb/v7e-m/nofp/libgcc.a(_arm_muldf3.o)
 .ARM.attributes
                0x0000000000000000       0x1e /opt/gcc-arm-none-eabi-10.3-2021.07/bin/../lib/gcc/arm-none-eabi/10.3.1/thumb/v7e-m/nofp/libgcc.a(_arm_muldf3.o)
 .data          0x0000000000000000        0x0 /opt/gcc-arm-none-eabi-10.3-2021.07/bin/../lib/gcc/arm-none-eabi/10.3.1/thumb/v7e-m/nofp/libgcc.a(_arm_addsubdf3.o)
 .bss           0x0000000000000000        0x0 /opt/gcc-arm-none-eabi-10.3-2021.07/bin/../lib/gcc/arm-none-eabi/10.3.1/thumb/v7e-m/nofp/libgcc.a(_arm_addsubdf3.o)
 .debug_frame   0x0000000000000000       0xac /opt/gcc-arm-none-eabi-10.3-2021.07/bin/../lib/gcc/arm-none-eabi/10.3.1/thumb/v7e-m/nofp/libgcc.a(_arm_addsubdf3.o)
 .ARM.attributes
                0x0000000000000000       0x1e /opt/gcc-arm-none-eabi-10.3-2021.07/bin/../lib/gcc/arm-none-eabi/10.3.1/thumb/v7e-m/nofp/libgcc.a(_arm_addsubdf3.o)
 .data          0x0000000000000000        0x0 /opt/gcc-arm-none-eabi-10.3-2021.07/bin/../lib/gcc/arm-none-eabi/10.3.1/thumb/v7e-m/nofp/libgcc.a(_arm_muldivdf3.o)
 .bss           0x0000000000000000        0x0 /opt/gcc-arm-none-eabi-10.3-2021.07/bin/../lib/gcc/arm-none-eabi/10.3.1/thumb/v7e-m/nofp/libgcc.a(_arm_muldivdf3.o)
 .debug_frame   0x0000000000000000       0x50 /opt/gcc-arm-none-eabi-10.3-2021.07/bin/../lib/gcc/arm-none-eabi/10.3.1/thumb/v7e-m/nofp/libgcc.a(_arm_muldivdf3.o)
 .ARM.attributes
                0x0000000000000000       0x1e /opt/gcc-arm-none-eabi-10.3-2021.07/bin/../lib/gcc/arm-none-eabi/10.3.1/thumb/v7e-m/nofp/libgcc.a(_arm_muldivdf3.o)
 .data          0x0000000000000000        0x0 /opt/gcc-arm-none-eabi-10.3-2021.07/bin/../lib/gcc/arm-none-eabi/10.3.1/thumb/v7e-m/nofp/libgcc.a(_arm_cmpdf2.o)
 .bss           0x0000000000000000        0x0 /opt/gcc-arm-none-eabi-10.3-2021.07/bin/../lib/gcc/arm-none-eabi/10.3.1/thumb/v7e-m/nofp/libgcc.a(_arm_cmpdf2.o)
 .debug_frame   0x0000000000000000       0xc4 /opt/gcc-arm-none-eabi-10.3-2021.07/bin/../lib/gcc/arm-none-eabi/10.3.1/thumb/v7e-m/nofp/libgcc.a(_arm_cmpdf2.o)
 .ARM.attributes
                0x0000000000000000       0x1e /opt/gcc-arm-none-eabi-10.3-2021.07/bin/../lib/gcc/arm-none-eabi/10.3.1/thumb/v7e-m/nofp/libgcc.a(_arm_cmpdf2.o)
 .data          0x0000000000000000        0x0 /opt/gcc-arm-none-eabi-10.3-2021.07/bin/../lib/gcc/arm-none-eabi/10.3.1/thumb/v7e-m/nofp/libgcc.a(_arm_unorddf2.o)
 .bss           0x0000000000000000        0x0 /opt/gcc-arm-none-eabi-10.3-2021.07/bin/../lib/gcc/arm-none-eabi/10.3.1/thumb/v7e-m/nofp/libgcc.a(_arm_unorddf2.o)
 .debug_frame   0x0000000000000000       0x20 /opt/gcc-arm-none-eabi-10.3-2021.07/bin/../lib/gcc/arm-none-eabi/10.3.1/thumb/v7e-m/nofp/libgcc.a(_arm_unorddf2.o)
 .ARM.attributes
                0x0000000000000000       0x1e /opt/gcc-arm-none-eabi-10.3-2021.07/bin/../lib/gcc/arm-none-eabi/10.3.1/thumb/v7e-m/nofp/libgcc.a(_arm_unorddf2.o)
 .data          0x0000000000000000        0x0 /opt/gcc-arm-none-eabi-10.3-2021.07/bin/../lib/gcc/arm-none-eabi/10.3.1/thumb/v7e-m/nofp/libgcc.a(_arm_fixdfsi.o)
 .bss           0x0000000000000000        0x0 /opt/gcc-arm-none-eabi-10.3-2021.07/bin/../lib/gcc/arm-none-eabi/10.3.1/thumb/v7e-m/nofp/libgcc.a(_arm_fixdfsi.o)
 .debug_frame   0x0000000000000000       0x24 /opt/gcc-arm-none-eabi-10.3-2021.07/bin/../lib/gcc/arm-none-eabi/10.3.1/thumb/v7e-m/nofp/libgcc.a(_arm_fixdfsi.o)
 .ARM.attributes
                0x0000000000000000       0x1e /opt/gcc-arm-none-eabi-10.3-2021.07/bin/../lib/gcc/arm-none-eabi/10.3.1/thumb/v7e-m/nofp/libgcc.a(_arm_fixdfsi.o)
 .text          0x0000000000000000       0x40 /opt/gcc-arm-none-eabi-10.3-2021.07/bin/../lib/gcc/arm-none-eabi/10.3.1/thumb/v7e-m/nofp/libgcc.a(_arm_fixunsdfsi.o)
 .data          0x0000000000000000        0x0 /opt/gcc-arm-none-eabi-10.3-2021.07/bin/../lib/gcc/arm-none-eabi/10.3.1/thumb/v7e-m/nofp/libgcc.a(_arm_fixunsdfsi.o)
 .bss           0x0000000000000000        0x0 /opt/gcc-arm-none-eabi-10.3-2021.07/bin/../lib/gcc/arm-none-eabi/10.3.1/thumb/v7e-m/nofp/libgcc.a(_arm_fixunsdfsi.o)
 .debug_frame   0x0000000000000000       0x24 /opt/gcc-arm-none-eabi-10.3-2021.07/bin/../lib/gcc/arm-none-eabi/10.3.1/thumb/v7e-m/nofp/libgcc.a(_arm_fixunsdfsi.o)
 .ARM.attributes
                0x0000000000000000       0x1e /opt/gcc-arm-none-eabi-10.3-2021.07/bin/../lib/gcc/arm-none-eabi/10.3.1/thumb/v7e-m/nofp/libgcc.a(_arm_fixunsdfsi.o)
 .data          0x0000000000000000        0x0 /opt/gcc-arm-none-eabi-10.3-2021.07/bin/../lib/gcc/arm-none-eabi/10.3.1/thumb/v7e-m/nofp/libgcc.a(_aeabi_uldivmod.o)
 .bss           0x0000000000000000        0x0 /opt/gcc-arm-none-eabi-10.3-2021.07/bin/../lib/gcc/arm-none-eabi/10.3.1/thumb/v7e-m/nofp/libgcc.a(_aeabi_uldivmod.o)
 .debug_frame   0x0000000000000000       0x2c /opt/gcc-arm-none-eabi-10.3-2021.07/bin/../lib/gcc/arm-none-eabi/10.3.1/thumb/v7e-m/nofp/libgcc.a(_aeabi_uldivmod.o)
 .ARM.attributes
                0x0000000000000000       0x1e /opt/gcc-arm-none-eabi-10.3-2021.07/bin/../lib/gcc/arm-none-eabi/10.3.1/thumb/v7e-m/nofp/libgcc.a(_aeabi_uldivmod.o)
 .data          0x0000000000000000        0x0 /opt/gcc-arm-none-eabi-10.3-2021.07/bin/../lib/gcc/arm-none-eabi/10.3.1/thumb/v7e-m/nofp/libgcc.a(_udivmoddi4.o)
 .bss           0x0000000000000000        0x0 /opt/gcc-arm-none-eabi-10.3-2021.07/bin/../lib/gcc/arm-none-eabi/10.3.1/thumb/v7e-m/nofp/libgcc.a(_udivmoddi4.o)
 .ARM.extab     0x0000000000000000        0x0 /opt/gcc-arm-none-eabi-10.3-2021.07/bin/../lib/gcc/arm-none-eabi/10.3.1/thumb/v7e-m/nofp/libgcc.a(_udivmoddi4.o)
 .debug_frame   0x0000000000000000       0x34 /opt/gcc-arm-none-eabi-10.3-2021.07/bin/../lib/gcc/arm-none-eabi/10.3.1/thumb/v7e-m/nofp/libgcc.a(_udivmoddi4.o)
 .ARM.attributes
                0x0000000000000000       0x2e /opt/gcc-arm-none-eabi-10.3-2021.07/bin/../lib/gcc/arm-none-eabi/10.3.1/thumb/v7e-m/nofp/libgcc.a(_udivmoddi4.o)
 .data          0x0000000000000000        0x0 /opt/gcc-arm-none-eabi-10.3-2021.07/bin/../lib/gcc/arm-none-eabi/10.3.1/thumb/v7e-m/nofp/libgcc.a(_dvmd_tls.o)
 .bss           0x0000000000000000        0x0 /opt/gcc-arm-none-eabi-10.3-2021.07/bin/../lib/gcc/arm-none-eabi/10.3.1/thumb/v7e-m/nofp/libgcc.a(_dvmd_tls.o)
 .ARM.attributes
                0x0000000000000000       0x1e /opt/gcc-arm-none-eabi-10.3-2021.07/bin/../lib/gcc/arm-none-eabi/10.3.1/thumb/v7e-m/nofp/libgcc.a(_dvmd_tls.o)

Memory Configuration

Name             Origin             Length             Attributes
VECTOR           0x0000000008000000 0x0000000000000168 xr
FLASH            0x0000000008000168 0x000000000000fe98 xr
RAM              0x0000000020000000 0x0000000000003000 xrw
MEMORY_B1        0x0000000060000000 0x0000000000000000 xr
*default*        0x0000000000000000 0xffffffffffffffff

Linker script and memory map

LOAD build/os/tpl_os_kernel.c.o
LOAD build/os/tpl_os_timeobj_kernel.c.o
LOAD build/os/tpl_os_action.c.o
LOAD build/os/tpl_os_error.c.o
LOAD build/os/tpl_os_os_kernel.c.o
LOAD build/os/tpl_os_os.c.o
LOAD build/os/tpl_os_interrupt_kernel.c.o
LOAD build/os/tpl_os_task_kernel.c.o
LOAD build/os/tpl_os_resource_kernel.c.o
LOAD build/lab1/tpl_app_config.c.o
LOAD build/lab1/tpl_dispatch_table.c.o
LOAD build/lab1/tpl_invoque.S.o
LOAD build/lab1/tpl_primary_irq.S.o
LOAD build/lab1/tpl_vectors.c.o
LOAD build/lab1/tpl_external_interrupts.c.o
LOAD build/lab1/tpl_app_interrupts.c.o
LOAD build/machines/cortex/tpl_machine_cortex.c.o
LOAD build/machines/cortex/tpl_sc_handler.S.o
LOAD build/machines/cortex/tpl_startup.S.o
LOAD build/machines/cortex/armv7em/tpl_ctx_switch.S.o
LOAD build/machines/cortex/armv7em/tpl_ctx_switch_under_it.S.o
LOAD build/machines/cortex/armv7em/tpl_interrupts.S.o
LOAD build/machines/cortex/armv7em/stm32f303/handlers_stm32f3xx.c.o
LOAD build/machines/cortex/armv7em/stm32f303/startup_stm32f3xx.c.o
LOAD build/machines/cortex/armv7em/stm32f303/system_stm32f30x.c.o
LOAD build/machines/cortex/armv7em/stm32f303/tpl_machine_stm32f303.c.o
LOAD build/machines/cortex/armv7em/stm32f303/tpl_memory_protection.c.o
LOAD build/machines/cortex/armv7em/stm32f303/lib/pinAccess.c.o
LOAD build/machines/cortex/armv7em/stm32f303/tpl_trace.c.o
LOAD build/machines/cortex/armv7em/stm32f303/coroLabBoard/spi.c.o
LOAD build/lab1.cpp.o
LOAD build/machines/cortex/armv7em/stm32f303/coroLabBoard/mcp23s17.cpp.o
LOAD build/machines/cortex/armv7em/stm32f303/coroLabBoard/coroBoard.cpp.o
LOAD build/machines/cortex/armv7em/stm32f303/coroLabBoard/tft/arduinoCore/Print.cpp.o
LOAD build/machines/cortex/armv7em/stm32f303/coroLabBoard/tft/tft.cpp.o
LOAD build/machines/cortex/armv7em/stm32f303/coroLabBoard/tft/Adafruit-ST7735-Library/Adafruit_ST7735.cpp.o
LOAD build/machines/cortex/armv7em/stm32f303/coroLabBoard/tft/Adafruit-ST7735-Library/Adafruit_ST77xx.cpp.o
LOAD build/machines/cortex/armv7em/stm32f303/coroLabBoard/tft/Adafruit-GFX-Library/Adafruit_GFX.cpp.o
LOAD build/machines/cortex/armv7em/stm32f303/coroLabBoard/tft/Adafruit-GFX-Library/Adafruit_SPITFT.cpp.o
                0x0000000020003000                _estack = 0x20003000
                0x0000000000000000                _Min_Heap_Size = 0x0
                0x0000000000000400                _Min_Stack_Size = 0x400

.isr_vector     0x0000000008000000      0x168
                0x0000000008000000                . = ALIGN (0x4)
 *(.isr_vector)
 .isr_vector    0x0000000008000000      0x168 build/lab1/tpl_vectors.c.o
                0x0000000008000000                tpl_it_vectors
                0x0000000008000168                . = ALIGN (0x4)
                0x0000000008000168                . = ALIGN (0x4)

ostext          0x0000000008000168     0x183c
 *(.SC_handler)
 *(.EI_handler)
 *(.osCode)
 .osCode        0x0000000008000168      0x83c build/os/tpl_os_kernel.c.o
                0x0000000008000168                tpl_current_os_state
                0x00000000080001bc                tpl_schedule_from_running
                0x0000000008000204                tpl_start_scheduling
                0x000000000800021c                tpl_start
                0x0000000008000294                tpl_run_elected
                0x000000000800030c                tpl_block
                0x0000000008000338                tpl_release
                0x0000000008000374                tpl_front_proc
                0x00000000080003a0                tpl_terminate
                0x00000000080003d4                tpl_init_proc
                0x0000000008000408                tpl_put_preempted_proc
                0x0000000008000468                tpl_put_new_proc
                0x00000000080004f4                tpl_init_os
                0x0000000008000558                tpl_get_internal_resource
                0x00000000080005e4                tpl_release_internal_resource
                0x0000000008000634                tpl_call_terminate_task_service
                0x0000000008000668                tpl_call_terminate_isr2_service
                0x00000000080006b0                tpl_activate_task
                0x0000000008000728                tpl_set_event
                0x0000000008000748                tpl_compare_entries
                0x00000000080007e0                tpl_bubble_up
                0x0000000008000860                tpl_bubble_down
                0x0000000008000916                tpl_remove_front_proc
                0x0000000008000978                tpl_preempt
 .osCode        0x00000000080009a4      0x2f0 build/os/tpl_os_timeobj_kernel.c.o
                0x00000000080009a4                tpl_enable_counters
                0x00000000080009bc                tpl_insert_time_obj
                0x0000000008000a9a                tpl_remove_time_obj
                0x0000000008000b0c                tpl_counter_tick
 .osCode        0x0000000008000c94       0xac build/os/tpl_os_os_kernel.c.o
                0x0000000008000c94                tpl_get_active_application_mode_service
                0x0000000008000cc4                tpl_start_os_service
                0x0000000008000d10                tpl_call_shutdown_os
                0x0000000008000d26                tpl_shutdown_os_service
 .osCode        0x0000000008000d40      0x1e0 build/os/tpl_os_interrupt_kernel.c.o
                0x0000000008000d40                tpl_get_interrupt_lock_status
                0x0000000008000d80                tpl_reset_interrupt_lock_status
                0x0000000008000dbc                tpl_terminate_isr2_service
                0x0000000008000e00                tpl_null_it
                0x0000000008000e12                tpl_enable_all_interrupts_service
                0x0000000008000e30                tpl_disable_all_interrupts_service
                0x0000000008000e60                tpl_resume_all_interrupts_service
                0x0000000008000e98                tpl_suspend_all_interrupts_service
                0x0000000008000ec0                tpl_resume_os_interrupts_service
                0x0000000008000ef8                tpl_suspend_os_interrupts_service
 .osCode        0x0000000008000f20      0x2b4 build/os/tpl_os_task_kernel.c.o
                0x0000000008000f20                tpl_activate_task_service
                0x0000000008000f84                tpl_terminate_task_service
                0x0000000008000ff4                tpl_chain_task_service
                0x00000000080010a4                tpl_schedule_service
                0x0000000008001120                tpl_get_task_id_service
                0x0000000008001170                tpl_get_task_state_service
 .osCode        0x00000000080011d4      0x20c build/os/tpl_os_resource_kernel.c.o
                0x00000000080011d4                tpl_release_all_resources
                0x0000000008001234                tpl_get_resource_service
                0x000000000800132c                tpl_release_resource_service
 .osCode        0x00000000080013e0       0x40 build/lab1/tpl_app_config.c.o
                0x00000000080013e0                tpl_tick_SysTick
                0x0000000008001414                SysTick_Handler
 .osCode        0x0000000008001420       0x30 build/lab1/tpl_primary_irq.S.o
                0x0000000008001420                tpl_primary_irq_handler_SysTick
 .osCode        0x0000000008001450       0x20 build/lab1/tpl_external_interrupts.c.o
                0x0000000008001450                tpl_init_external_interrupts
 .osCode        0x0000000008001470       0x24 build/lab1/tpl_app_interrupts.c.o
                0x0000000008001470                tpl_init_it_priority
                0x000000000800147c                tpl_disable_os_interrupts
                0x0000000008001488                tpl_enable_os_interrupts
 .osCode        0x0000000008001494      0x164 build/machines/cortex/tpl_machine_cortex.c.o
                0x0000000008001494                tpl_init_context
                0x0000000008001580                tpl_init_machine
                0x0000000008001590                tpl_shutdown
                0x000000000800159a                tpl_init_machine_generic
                0x00000000080015a6                tpl_init_machine_specific
                0x00000000080015dc                tpl_check_stack_footprint
 .osCode        0x00000000080015f8       0x6c build/machines/cortex/tpl_sc_handler.S.o
                0x00000000080015f8                tpl_sc_handler
 .osCode        0x0000000008001664       0x1c build/machines/cortex/tpl_startup.S.o
                0x0000000008001664                tpl_reset_handler
 .osCode        0x0000000008001680       0x4c build/machines/cortex/armv7em/tpl_ctx_switch.S.o
                0x0000000008001680                tpl_save_context
                0x00000000080016a6                tpl_load_context
 .osCode        0x00000000080016cc       0x44 build/machines/cortex/armv7em/tpl_ctx_switch_under_it.S.o
                0x00000000080016cc                tpl_save_context_under_it
                0x00000000080016ee                tpl_load_context_under_it
 .osCode        0x0000000008001710       0x2c build/machines/cortex/armv7em/tpl_interrupts.S.o
                0x0000000008001710                tpl_disable_interrupts
                0x0000000008001724                tpl_enable_interrupts
 .osCode        0x000000000800173c       0x7c build/machines/cortex/armv7em/stm32f303/tpl_machine_stm32f303.c.o
                0x000000000800178c                tpl_set_systick_timer
 *(.osApiCode)
 .osApiCode     0x00000000080017b8       0x2a build/os/tpl_os_os.c.o
                0x00000000080017b8                StartOS
 .osApiCode     0x00000000080017e2      0x1c2 build/lab1/tpl_invoque.S.o
                0x00000000080017e2                GetActiveApplicationMode
                0x00000000080017f8                tpl_start_os
                0x000000000800180e                ShutdownOS
                0x0000000008001824                EnableAllInterrupts
                0x000000000800183e                DisableAllInterrupts
                0x0000000008001858                ResumeAllInterrupts
                0x0000000008001872                SuspendAllInterrupts
                0x000000000800188c                ResumeOSInterrupts
                0x00000000080018a6                SuspendOSInterrupts
                0x00000000080018c0                CallTerminateISR2
                0x00000000080018da                ActivateTask
                0x00000000080018f0                TerminateTask
                0x0000000008001906                ChainTask
                0x000000000800191c                Schedule
                0x0000000008001932                GetTaskID
                0x0000000008001948                GetTaskState
                0x000000000800195e                CallTerminateTask
                0x0000000008001978                GetResource
                0x000000000800198e                ReleaseResource
 *(.appCommonCode)
                0x00000000080019a4                . = ALIGN (0x4)

osconst         0x00000000080019a4       0xf4
 *(.osConst)
 .osConst       0x00000000080019a4        0x2 build/os/tpl_os_kernel.c.o
                0x00000000080019a4                INVALID_PROC
                0x00000000080019a5                INVALID_TASK
 *fill*         0x00000000080019a6        0x2 
 .osConst       0x00000000080019a8       0x84 build/lab1/tpl_app_config.c.o
                0x00000000080019a8                tpl_stat_proc_table
                0x00000000080019b8                tpl_dyn_proc_table
                0x00000000080019c8                tpl_resource_table
                0x00000000080019cc                IDLE_TASK_task_stat_desc
                0x00000000080019e4                task2_task_stat_desc
                0x00000000080019fc                task1_task_stat_desc
                0x0000000008001a14                task3_task_stat_desc
 .osConst       0x0000000008001a2c       0x4c build/lab1/tpl_dispatch_table.c.o
                0x0000000008001a2c                tpl_dispatch_table
 *(.osApiConst)
 .osApiConst    0x0000000008001a78       0x20 build/lab1/tpl_app_config.c.o
                0x0000000008001a78                proc_name_table
                0x0000000008001a88                task2
                0x0000000008001a89                task1
                0x0000000008001a8a                task3
                0x0000000008001a8c                OSTICKSPERBASE
                0x0000000008001a90                OSMAXALLOWEDVALUE
                0x0000000008001a94                OSMINCYCLE
                0x0000000008001a98                . = ALIGN (0x4)

apptext         0x0000000008001a98        0x0
                0x0000000008001a98                __PROGCONST_SECTION_START = .
                0x0000000008001a98                __SEG_START_APP_CODE_CONST_RGN = .
                0x0000000008001a98                . = ALIGN (0x4)
 *(.Task_task2Code)
 *(.Task_task1Code)
 *(.Task_task3Code)
                0x0000000008001a98                . = ALIGN (0x4)

appconst        0x0000000008001a98     0x1235
 *(.rodata)
 .rodata        0x0000000008001a98       0x1f build/lab1/tpl_app_config.c.o
 *fill*         0x0000000008001ab7        0x1 
 .rodata        0x0000000008001ab8      0x17b build/lab1.cpp.o
 *(.rodata*)
 .rodata.OSDEFAULTAPPMODE
                0x0000000008001c33        0x1 build/lab1/tpl_app_config.c.o
                0x0000000008001c33                OSDEFAULTAPPMODE
 .rodata.tpl_task_app_mode
                0x0000000008001c34        0x3 build/lab1/tpl_app_config.c.o
                0x0000000008001c34                tpl_task_app_mode
 .rodata.AHBPrescTable
                0x0000000008001c37       0x10 build/machines/cortex/armv7em/stm32f303/system_stm32f30x.c.o
                0x0000000008001c37                AHBPrescTable
 *fill*         0x0000000008001c47        0x1 
 .rodata._ZTV5Print
                0x0000000008001c48       0x10 build/machines/cortex/armv7em/stm32f303/coroLabBoard/tft/arduinoCore/Print.cpp.o
                0x0000000008001c48                vtable for Print
 .rodata._ZL20VeraMono6pt7bBitmaps
                0x0000000008001c58      0x21f build/machines/cortex/armv7em/stm32f303/coroLabBoard/tft/tft.cpp.o
 *fill*         0x0000000008001e77        0x1 
 .rodata._ZL19VeraMono6pt7bGlyphs
                0x0000000008001e78      0x2f8 build/machines/cortex/armv7em/stm32f303/coroLabBoard/tft/tft.cpp.o
 .rodata._ZL13VeraMono6pt7b
                0x0000000008002170        0xc build/machines/cortex/armv7em/stm32f303/coroLabBoard/tft/tft.cpp.o
 .rodata._ZTV3tft
                0x000000000800217c       0x58 build/machines/cortex/armv7em/stm32f303/coroLabBoard/tft/tft.cpp.o
                0x000000000800217c                vtable for tft
 .rodata._ZL5Rcmd1
                0x00000000080021d4       0x3b build/machines/cortex/armv7em/stm32f303/coroLabBoard/tft/Adafruit-ST7735-Library/Adafruit_ST7735.cpp.o
 *fill*         0x000000000800220f        0x1 
 .rodata._ZL10Rcmd2green
                0x0000000008002210        0xd build/machines/cortex/armv7em/stm32f303/coroLabBoard/tft/Adafruit-ST7735-Library/Adafruit_ST7735.cpp.o
 *fill*         0x000000000800221d        0x3 
 .rodata._ZL8Rcmd2red
                0x0000000008002220        0xd build/machines/cortex/armv7em/stm32f303/coroLabBoard/tft/Adafruit-ST7735-Library/Adafruit_ST7735.cpp.o
 *fill*         0x000000000800222d        0x3 
 .rodata._ZL13Rcmd2green144
                0x0000000008002230        0xd build/machines/cortex/armv7em/stm32f303/coroLabBoard/tft/Adafruit-ST7735-Library/Adafruit_ST7735.cpp.o
 *fill*         0x000000000800223d        0x3 
 .rodata._ZL16Rcmd2green160x80
                0x0000000008002240        0xd build/machines/cortex/armv7em/stm32f303/coroLabBoard/tft/Adafruit-ST7735-Library/Adafruit_ST7735.cpp.o
 *fill*         0x000000000800224d        0x3 
 .rodata._ZL5Rcmd3
                0x0000000008002250       0x2b build/machines/cortex/armv7em/stm32f303/coroLabBoard/tft/Adafruit-ST7735-Library/Adafruit_ST7735.cpp.o
 *fill*         0x000000000800227b        0x1 
 .rodata._ZTV15Adafruit_ST7735
                0x000000000800227c       0x58 build/machines/cortex/armv7em/stm32f303/coroLabBoard/tft/Adafruit-ST7735-Library/Adafruit_ST7735.cpp.o
                0x000000000800227c                vtable for Adafruit_ST7735
 .rodata._ZTV15Adafruit_ST77xx
                0x00000000080022d4       0x58 build/machines/cortex/armv7em/stm32f303/coroLabBoard/tft/Adafruit-ST7735-Library/Adafruit_ST77xx.cpp.o
                0x00000000080022d4                vtable for Adafruit_ST77xx
 .rodata._ZL4font
                0x000000000800232c      0x500 build/machines/cortex/armv7em/stm32f303/coroLabBoard/tft/Adafruit-GFX-Library/Adafruit_GFX.cpp.o
 .rodata._ZTV12Adafruit_GFX
                0x000000000800282c       0x50 build/machines/cortex/armv7em/stm32f303/coroLabBoard/tft/Adafruit-GFX-Library/Adafruit_GFX.cpp.o
                0x000000000800282c                vtable for Adafruit_GFX
 .rodata._ZTV15Adafruit_SPITFT
                0x000000000800287c       0x58 build/machines/cortex/armv7em/stm32f303/coroLabBoard/tft/Adafruit-GFX-Library/Adafruit_SPITFT.cpp.o
                0x000000000800287c                vtable for Adafruit_SPITFT
 .rodata._vfprintf_r.str1.4
                0x00000000080028d4       0x42 /opt/gcc-arm-none-eabi-10.3-2021.07/bin/../lib/gcc/arm-none-eabi/10.3.1/../../../../arm-none-eabi/lib/thumb/v7e-m/nofp/libc.a(lib_a-vfprintf.o)
 *fill*         0x0000000008002916        0x2 
 .rodata.blanks.1
                0x0000000008002918       0x10 /opt/gcc-arm-none-eabi-10.3-2021.07/bin/../lib/gcc/arm-none-eabi/10.3.1/../../../../arm-none-eabi/lib/thumb/v7e-m/nofp/libc.a(lib_a-vfprintf.o)
 .rodata.zeroes.0
                0x0000000008002928       0x10 /opt/gcc-arm-none-eabi-10.3-2021.07/bin/../lib/gcc/arm-none-eabi/10.3.1/../../../../arm-none-eabi/lib/thumb/v7e-m/nofp/libc.a(lib_a-vfprintf.o)
 .rodata._dtoa_r.str1.4
                0x0000000008002938       0xa2 /opt/gcc-arm-none-eabi-10.3-2021.07/bin/../lib/gcc/arm-none-eabi/10.3.1/../../../../arm-none-eabi/lib/thumb/v7e-m/nofp/libc.a(lib_a-dtoa.o)
                                         0xa6 (size before relaxing)
 *fill*         0x00000000080029da        0x2 
 .rodata.__multadd.str1.4
                0x00000000080029dc       0x7f /opt/gcc-arm-none-eabi-10.3-2021.07/bin/../lib/gcc/arm-none-eabi/10.3.1/../../../../arm-none-eabi/lib/thumb/v7e-m/nofp/libc.a(lib_a-mprec.o)
                                         0x93 (size before relaxing)
 *fill*         0x0000000008002a5b        0x5 
 .rodata.__mprec_bigtens
                0x0000000008002a60       0x28 /opt/gcc-arm-none-eabi-10.3-2021.07/bin/../lib/gcc/arm-none-eabi/10.3.1/../../../../arm-none-eabi/lib/thumb/v7e-m/nofp/libc.a(lib_a-mprec.o)
                0x0000000008002a60                __mprec_bigtens
 .rodata.__mprec_tens
                0x0000000008002a88       0xc8 /opt/gcc-arm-none-eabi-10.3-2021.07/bin/../lib/gcc/arm-none-eabi/10.3.1/../../../../arm-none-eabi/lib/thumb/v7e-m/nofp/libc.a(lib_a-mprec.o)
                0x0000000008002a88                __mprec_tens
 .rodata.p05.0  0x0000000008002b50        0xc /opt/gcc-arm-none-eabi-10.3-2021.07/bin/../lib/gcc/arm-none-eabi/10.3.1/../../../../arm-none-eabi/lib/thumb/v7e-m/nofp/libc.a(lib_a-mprec.o)
 .rodata._vfiprintf_r.str1.4
                0x0000000008002b5c       0x2f /opt/gcc-arm-none-eabi-10.3-2021.07/bin/../lib/gcc/arm-none-eabi/10.3.1/../../../../arm-none-eabi/lib/thumb/v7e-m/nofp/libc.a(lib_a-vfiprintf.o)
 .rodata.blanks.1
                0x0000000008002b5c       0x10 /opt/gcc-arm-none-eabi-10.3-2021.07/bin/../lib/gcc/arm-none-eabi/10.3.1/../../../../arm-none-eabi/lib/thumb/v7e-m/nofp/libc.a(lib_a-vfiprintf.o)
 .rodata.zeroes.0
                0x0000000008002b6c       0x10 /opt/gcc-arm-none-eabi-10.3-2021.07/bin/../lib/gcc/arm-none-eabi/10.3.1/../../../../arm-none-eabi/lib/thumb/v7e-m/nofp/libc.a(lib_a-vfiprintf.o)
 .rodata.__assert_func.str1.4
                0x0000000008002b7c       0x3f /opt/gcc-arm-none-eabi-10.3-2021.07/bin/../lib/gcc/arm-none-eabi/10.3.1/../../../../arm-none-eabi/lib/thumb/v7e-m/nofp/libc.a(lib_a-assert.o)
                                         0x43 (size before relaxing)
 *fill*         0x0000000008002bbb        0x1 
 .rodata._setlocale_r.str1.4
                0x0000000008002bbc        0xa /opt/gcc-arm-none-eabi-10.3-2021.07/bin/../lib/gcc/arm-none-eabi/10.3.1/../../../../arm-none-eabi/lib/thumb/v7e-m/nofp/libc.a(lib_a-locale.o)
                                          0xd (size before relaxing)
 *fill*         0x0000000008002bc6        0x2 
 .rodata.str1.4
                0x0000000008002bc8        0x2 /opt/gcc-arm-none-eabi-10.3-2021.07/bin/../lib/gcc/arm-none-eabi/10.3.1/../../../../arm-none-eabi/lib/thumb/v7e-m/nofp/libc.a(lib_a-locale.o)
 *fill*         0x0000000008002bca        0x2 
 .rodata._ctype_
                0x0000000008002bcc      0x101 /opt/gcc-arm-none-eabi-10.3-2021.07/bin/../lib/gcc/arm-none-eabi/10.3.1/../../../../arm-none-eabi/lib/thumb/v7e-m/nofp/libc.a(lib_a-ctype_.o)
                0x0000000008002bcc                _ctype_
                0x0000000008002cd0                . = ALIGN (0x4)

procconst       0x0000000008002ccd        0x3
 *(.Task_task2_SEC_CONST_32BIT)
 *(.Task_task2_SEC_CALIB_32BIT)
 *(.Task_task2_SEC_CARTO_32BIT)
 *(.Task_task2_SEC_CONFIG_DATA_32BIT)
 *(.Task_task2_SEC_CONST_16BIT)
 *(.Task_task2_SEC_CALIB_16BIT)
 *(.Task_task2_SEC_CARTO_16BIT)
 *(.Task_task2_SEC_CONFIG_DATA_16BIT)
 *(.Task_task2_SEC_CONST_8BIT)
 *(.Task_task2_SEC_CALIB_8BIT)
 *(.Task_task2_SEC_CARTO_8BIT)
 *(.Task_task2_SEC_CONFIG_DATA_8BIT)
 *(.Task_task2_SEC_CONST_BOOLEAN)
 *(.Task_task2_SEC_CALIB_BOOLEAN)
 *(.Task_task2_SEC_CARTO_BOOLEAN)
 *(.Task_task2_SEC_CONFIG_DATA_BOOLEAN)
 *(.Task_task2_SEC_CONST_UNSPECIFIED)
 *(.Task_task2_SEC_CALIB_UNSPECIFIED)
 *(.Task_task2_SEC_CARTO_UNSPECIFIED)
 *(.Task_task2_SEC_CONFIG_DATA_UNSPECIFIED)
 *(.Task_task1_SEC_CONST_32BIT)
 *(.Task_task1_SEC_CALIB_32BIT)
 *(.Task_task1_SEC_CARTO_32BIT)
 *(.Task_task1_SEC_CONFIG_DATA_32BIT)
 *(.Task_task1_SEC_CONST_16BIT)
 *(.Task_task1_SEC_CALIB_16BIT)
 *(.Task_task1_SEC_CARTO_16BIT)
 *(.Task_task1_SEC_CONFIG_DATA_16BIT)
 *(.Task_task1_SEC_CONST_8BIT)
 *(.Task_task1_SEC_CALIB_8BIT)
 *(.Task_task1_SEC_CARTO_8BIT)
 *(.Task_task1_SEC_CONFIG_DATA_8BIT)
 *(.Task_task1_SEC_CONST_BOOLEAN)
 *(.Task_task1_SEC_CALIB_BOOLEAN)
 *(.Task_task1_SEC_CARTO_BOOLEAN)
 *(.Task_task1_SEC_CONFIG_DATA_BOOLEAN)
 *(.Task_task1_SEC_CONST_UNSPECIFIED)
 *(.Task_task1_SEC_CALIB_UNSPECIFIED)
 *(.Task_task1_SEC_CARTO_UNSPECIFIED)
 *(.Task_task1_SEC_CONFIG_DATA_UNSPECIFIED)
 *(.Task_task3_SEC_CONST_32BIT)
 *(.Task_task3_SEC_CALIB_32BIT)
 *(.Task_task3_SEC_CARTO_32BIT)
 *(.Task_task3_SEC_CONFIG_DATA_32BIT)
 *(.Task_task3_SEC_CONST_16BIT)
 *(.Task_task3_SEC_CALIB_16BIT)
 *(.Task_task3_SEC_CARTO_16BIT)
 *(.Task_task3_SEC_CONFIG_DATA_16BIT)
 *(.Task_task3_SEC_CONST_8BIT)
 *(.Task_task3_SEC_CALIB_8BIT)
 *(.Task_task3_SEC_CARTO_8BIT)
 *(.Task_task3_SEC_CONFIG_DATA_8BIT)
 *(.Task_task3_SEC_CONST_BOOLEAN)
 *(.Task_task3_SEC_CALIB_BOOLEAN)
 *(.Task_task3_SEC_CARTO_BOOLEAN)
 *(.Task_task3_SEC_CONFIG_DATA_BOOLEAN)
 *(.Task_task3_SEC_CONST_UNSPECIFIED)
 *(.Task_task3_SEC_CALIB_UNSPECIFIED)
 *(.Task_task3_SEC_CARTO_UNSPECIFIED)
 *(.Task_task3_SEC_CONFIG_DATA_UNSPECIFIED)
                0x0000000008002cd0                . = ALIGN (0x4)
 *fill*         0x0000000008002ccd        0x3 
                0x0000000008002ccf                __SEG_STOP_APP_CODE_CONST_RGN = (. - 0x1)
                0x0000000008002ccf                __PROGCONST_SECTION_STOP = (. - 0x1)

.text           0x0000000008002d00     0x917c
                0x0000000008002d00                . = ALIGN (0x4)
 *(.text)
 .text          0x0000000008002d00       0xdc /opt/gcc-arm-none-eabi-10.3-2021.07/bin/../lib/gcc/arm-none-eabi/10.3.1/../../../../arm-none-eabi/lib/thumb/v7e-m/nofp/libc.a(lib_a-strlen.o)
                0x0000000008002d00                strlen
 *fill*         0x0000000008002ddc        0x4 
 .text          0x0000000008002de0       0xa0 /opt/gcc-arm-none-eabi-10.3-2021.07/bin/../lib/gcc/arm-none-eabi/10.3.1/../../../../arm-none-eabi/lib/thumb/v7e-m/nofp/libc.a(lib_a-memchr.o)
                0x0000000008002de0                memchr
 .text          0x0000000008002e80      0x134 /opt/gcc-arm-none-eabi-10.3-2021.07/bin/../lib/gcc/arm-none-eabi/10.3.1/../../../../arm-none-eabi/lib/thumb/v7e-m/nofp/libc.a(lib_a-memcpy.o)
                0x0000000008002e80                memcpy
 .text          0x0000000008002fb4      0x378 /opt/gcc-arm-none-eabi-10.3-2021.07/bin/../lib/gcc/arm-none-eabi/10.3.1/thumb/v7e-m/nofp/libgcc.a(_arm_addsubdf3.o)
                0x0000000008002fb4                __aeabi_drsub
                0x0000000008002fbc                __aeabi_dsub
                0x0000000008002fbc                __subdf3
                0x0000000008002fc0                __adddf3
                0x0000000008002fc0                __aeabi_dadd
                0x0000000008003238                __aeabi_ui2d
                0x0000000008003238                __floatunsidf
                0x0000000008003258                __floatsidf
                0x0000000008003258                __aeabi_i2d
                0x000000000800327c                __extendsfdf2
                0x000000000800327c                __aeabi_f2d
                0x00000000080032c0                __aeabi_ul2d
                0x00000000080032c0                __floatundidf
                0x00000000080032d0                __floatdidf
                0x00000000080032d0                __aeabi_l2d
 .text          0x000000000800332c      0x424 /opt/gcc-arm-none-eabi-10.3-2021.07/bin/../lib/gcc/arm-none-eabi/10.3.1/thumb/v7e-m/nofp/libgcc.a(_arm_muldivdf3.o)
                0x000000000800332c                __aeabi_dmul
                0x000000000800332c                __muldf3
                0x0000000008003580                __aeabi_ddiv
                0x0000000008003580                __divdf3
 .text          0x0000000008003750      0x110 /opt/gcc-arm-none-eabi-10.3-2021.07/bin/../lib/gcc/arm-none-eabi/10.3.1/thumb/v7e-m/nofp/libgcc.a(_arm_cmpdf2.o)
                0x0000000008003750                __gtdf2
                0x0000000008003750                __gedf2
                0x0000000008003758                __ltdf2
                0x0000000008003758                __ledf2
                0x0000000008003760                __cmpdf2
                0x0000000008003760                __eqdf2
                0x0000000008003760                __nedf2
                0x00000000080037dc                __aeabi_cdrcmple
                0x00000000080037ec                __aeabi_cdcmple
                0x00000000080037ec                __aeabi_cdcmpeq
                0x00000000080037fc                __aeabi_dcmpeq
                0x0000000008003810                __aeabi_dcmplt
                0x0000000008003824                __aeabi_dcmple
                0x0000000008003838                __aeabi_dcmpge
                0x000000000800384c                __aeabi_dcmpgt
 .text          0x0000000008003860       0x2c /opt/gcc-arm-none-eabi-10.3-2021.07/bin/../lib/gcc/arm-none-eabi/10.3.1/thumb/v7e-m/nofp/libgcc.a(_arm_unorddf2.o)
                0x0000000008003860                __aeabi_dcmpun
                0x0000000008003860                __unorddf2
 .text          0x000000000800388c       0x50 /opt/gcc-arm-none-eabi-10.3-2021.07/bin/../lib/gcc/arm-none-eabi/10.3.1/thumb/v7e-m/nofp/libgcc.a(_arm_fixdfsi.o)
                0x000000000800388c                __fixdfsi
                0x000000000800388c                __aeabi_d2iz
 .text          0x00000000080038dc       0x30 /opt/gcc-arm-none-eabi-10.3-2021.07/bin/../lib/gcc/arm-none-eabi/10.3.1/thumb/v7e-m/nofp/libgcc.a(_aeabi_uldivmod.o)
                0x00000000080038dc                __aeabi_uldivmod
 .text          0x000000000800390c      0x2d0 /opt/gcc-arm-none-eabi-10.3-2021.07/bin/../lib/gcc/arm-none-eabi/10.3.1/thumb/v7e-m/nofp/libgcc.a(_udivmoddi4.o)
                0x000000000800390c                __udivmoddi4
 .text          0x0000000008003bdc        0x4 /opt/gcc-arm-none-eabi-10.3-2021.07/bin/../lib/gcc/arm-none-eabi/10.3.1/thumb/v7e-m/nofp/libgcc.a(_dvmd_tls.o)
                0x0000000008003bdc                __aeabi_ldiv0
                0x0000000008003bdc                __aeabi_idiv0
 *(.text*)
 .text.NVIC_SetPriority
                0x0000000008003be0       0x54 build/machines/cortex/tpl_machine_cortex.c.o
 .text.idle_function
                0x0000000008003c34        0x6 build/machines/cortex/tpl_machine_cortex.c.o
                0x0000000008003c34                idle_function
 .text.NMI_Handler
                0x0000000008003c3a        0x8 build/machines/cortex/armv7em/stm32f303/handlers_stm32f3xx.c.o
                0x0000000008003c3a                NMI_Handler
 *fill*         0x0000000008003c42        0x2 
 .text.HardFault_Handler
                0x0000000008003c44       0x64 build/machines/cortex/armv7em/stm32f303/handlers_stm32f3xx.c.o
                0x0000000008003c44                HardFault_Handler
 .text.MemManage_Handler
                0x0000000008003ca8        0x8 build/machines/cortex/armv7em/stm32f303/handlers_stm32f3xx.c.o
                0x0000000008003ca8                MemManage_Handler
 .text.BusFault_Handler
                0x0000000008003cb0        0x8 build/machines/cortex/armv7em/stm32f303/handlers_stm32f3xx.c.o
                0x0000000008003cb0                BusFault_Handler
 .text.UsageFault_Handler
                0x0000000008003cb8        0x8 build/machines/cortex/armv7em/stm32f303/handlers_stm32f3xx.c.o
                0x0000000008003cb8                UsageFault_Handler
 .text.DebugMonitor_Handler
                0x0000000008003cc0        0x6 build/machines/cortex/armv7em/stm32f303/handlers_stm32f3xx.c.o
                0x0000000008003cc0                DebugMonitor_Handler
 *fill*         0x0000000008003cc6        0x2 
 .text.__libc_init_array
                0x0000000008003cc8       0x44 build/machines/cortex/armv7em/stm32f303/startup_stm32f3xx.c.o
                0x0000000008003cc8                __libc_init_array
 .text.__libc_fini_array
                0x0000000008003d0c       0x20 build/machines/cortex/armv7em/stm32f303/startup_stm32f3xx.c.o
                0x0000000008003d0c                __libc_fini_array
 .text.__cxa_pure_virtual
                0x0000000008003d2c        0x2 build/machines/cortex/armv7em/stm32f303/startup_stm32f3xx.c.o
                0x0000000008003d2c                __cxa_pure_virtual
 *fill*         0x0000000008003d2e        0x2 
 .text.SystemCoreClockUpdate
                0x0000000008003d30       0x60 build/machines/cortex/armv7em/stm32f303/system_stm32f30x.c.o
                0x0000000008003d30                SystemCoreClockUpdate
 .text.SystemInit
                0x0000000008003d90       0x5c build/machines/cortex/armv7em/stm32f303/system_stm32f30x.c.o
                0x0000000008003d90                SystemInit
 .text.NVIC_SetPriority
                0x0000000008003dec       0x54 build/machines/cortex/armv7em/stm32f303/tpl_machine_stm32f303.c.o
 .text.clockForGpio
                0x0000000008003e40       0x68 build/machines/cortex/armv7em/stm32f303/lib/pinAccess.c.o
                0x0000000008003e40                clockForGpio
 .text.pinMode  0x0000000008003ea8       0xac build/machines/cortex/armv7em/stm32f303/lib/pinAccess.c.o
                0x0000000008003ea8                pinMode
 .text.setupSPI
                0x0000000008003f54       0x7c build/machines/cortex/armv7em/stm32f303/coroLabBoard/spi.c.o
                0x0000000008003f54                setupSPI
 .text.beginTransaction
                0x0000000008003fd0        0xc build/machines/cortex/armv7em/stm32f303/coroLabBoard/spi.c.o
                0x0000000008003fd0                beginTransaction
 .text.endTransaction
                0x0000000008003fdc       0x18 build/machines/cortex/armv7em/stm32f303/coroLabBoard/spi.c.o
                0x0000000008003fdc                endTransaction
 .text.transfer8
                0x0000000008003ff4       0x30 build/machines/cortex/armv7em/stm32f303/coroLabBoard/spi.c.o
                0x0000000008003ff4                transfer8
 .text.write8   0x0000000008004024       0x14 build/machines/cortex/armv7em/stm32f303/coroLabBoard/spi.c.o
                0x0000000008004024                write8
 .text.main     0x0000000008004038       0x20 build/lab1.cpp.o
                0x0000000008004038                main
 .text.task1_function
                0x0000000008004058       0x78 build/lab1.cpp.o
                0x0000000008004058                task1_function
 .text.task2_function
                0x00000000080040d0       0x30 build/lab1.cpp.o
                0x00000000080040d0                task2_function
 .text.task3_function
                0x0000000008004100       0x30 build/lab1.cpp.o
                0x0000000008004100                task3_function
 .text._ZN8mcp23s17C2Ev
                0x0000000008004130       0x4c build/machines/cortex/armv7em/stm32f303/coroLabBoard/mcp23s17.cpp.o
                0x0000000008004130                mcp23s17::mcp23s17()
                0x0000000008004130                mcp23s17::mcp23s17()
 .text._ZN8mcp23s175beginEv
                0x000000000800417c       0x48 build/machines/cortex/armv7em/stm32f303/coroLabBoard/mcp23s17.cpp.o
                0x000000000800417c                mcp23s17::begin()
 .text._ZN8mcp23s178writeRegEhh
                0x00000000080041c4       0x36 build/machines/cortex/armv7em/stm32f303/coroLabBoard/mcp23s17.cpp.o
                0x00000000080041c4                mcp23s17::writeReg(unsigned char, unsigned char)
 .text._ZN8mcp23s177readRegEh
                0x00000000080041fa       0x36 build/machines/cortex/armv7em/stm32f303/coroLabBoard/mcp23s17.cpp.o
                0x00000000080041fa                mcp23s17::readReg(unsigned char)
 .text._ZN8mcp23s177pinModeENS_4portEhNS_4modeE
                0x0000000008004230       0x80 build/machines/cortex/armv7em/stm32f303/coroLabBoard/mcp23s17.cpp.o
                0x0000000008004230                mcp23s17::pinMode(mcp23s17::port, unsigned char, mcp23s17::mode)
 .text._ZN8mcp23s1712digitalWriteENS_4portEhb
                0x00000000080042b0       0x86 build/machines/cortex/armv7em/stm32f303/coroLabBoard/mcp23s17.cpp.o
                0x00000000080042b0                mcp23s17::digitalWrite(mcp23s17::port, unsigned char, bool)
 .text._ZN8mcp23s1711setBitInRegEhh
                0x0000000008004336       0x50 build/machines/cortex/armv7em/stm32f303/coroLabBoard/mcp23s17.cpp.o
                0x0000000008004336                mcp23s17::setBitInReg(unsigned char, unsigned char)
 .text._ZN8mcp23s1713clearBitInRegEhh
                0x0000000008004386       0x54 build/machines/cortex/armv7em/stm32f303/coroLabBoard/mcp23s17.cpp.o
                0x0000000008004386                mcp23s17::clearBitInReg(unsigned char, unsigned char)
 .text._ZN8mcp23s1715attachInterruptENS_4portEh
                0x00000000080043da       0x40 build/machines/cortex/armv7em/stm32f303/coroLabBoard/mcp23s17.cpp.o
                0x00000000080043da                mcp23s17::attachInterrupt(mcp23s17::port, unsigned char)
 *fill*         0x000000000800441a        0x2 
 .text._Z41__static_initialization_and_destruction_0ii
                0x000000000800441c       0x2c build/machines/cortex/armv7em/stm32f303/coroLabBoard/mcp23s17.cpp.o
 .text._GLOBAL__sub_I__ZN8mcp23s17C2Ev
                0x0000000008004448       0x10 build/machines/cortex/armv7em/stm32f303/coroLabBoard/mcp23s17.cpp.o
 .text._Z15setupIOExtenderv
                0x0000000008004458       0x80 build/machines/cortex/armv7em/stm32f303/coroLabBoard/coroBoard.cpp.o
                0x0000000008004458                setupIOExtender()
 .text._Z10setupTimerv
                0x00000000080044d8       0x5c build/machines/cortex/armv7em/stm32f303/coroLabBoard/coroBoard.cpp.o
                0x00000000080044d8                setupTimer()
 .text._Z13initCoroBoardv
                0x0000000008004534       0x28 build/machines/cortex/armv7em/stm32f303/coroLabBoard/coroBoard.cpp.o
                0x0000000008004534                initCoroBoard()
 .text._ZN5Print5writeEPKhj
                0x000000000800455c       0x5c build/machines/cortex/armv7em/stm32f303/coroLabBoard/tft/arduinoCore/Print.cpp.o
                0x000000000800455c                Print::write(unsigned char const*, unsigned int)
 .text._ZN15Adafruit_ST7735C2Ev
                0x00000000080045b8       0x24 build/machines/cortex/armv7em/stm32f303/coroLabBoard/tft/tft.cpp.o
                0x00000000080045b8                Adafruit_ST7735::Adafruit_ST7735()
                0x00000000080045b8                Adafruit_ST7735::Adafruit_ST7735()
 .text._ZN3tftC2Ev
                0x00000000080045dc       0x24 build/machines/cortex/armv7em/stm32f303/coroLabBoard/tft/tft.cpp.o
                0x00000000080045dc                tft::tft()
                0x00000000080045dc                tft::tft()
 .text._ZN3tft5eraseEv
                0x0000000008004600       0x2c build/machines/cortex/armv7em/stm32f303/coroLabBoard/tft/tft.cpp.o
                0x0000000008004600                tft::erase()
 .text._ZN3tft5setupEv
                0x000000000800462c       0x3c build/machines/cortex/armv7em/stm32f303/coroLabBoard/tft/tft.cpp.o
                0x000000000800462c                tft::setup()
 .text._Z41__static_initialization_and_destruction_0ii
                0x0000000008004668       0x2c build/machines/cortex/armv7em/stm32f303/coroLabBoard/tft/tft.cpp.o
 .text._GLOBAL__sub_I__ZN3tft5eraseEv
                0x0000000008004694       0x10 build/machines/cortex/armv7em/stm32f303/coroLabBoard/tft/tft.cpp.o
 .text._ZN15Adafruit_ST77355initREh
                0x00000000080046a4      0x11c build/machines/cortex/armv7em/stm32f303/coroLabBoard/tft/Adafruit-ST7735-Library/Adafruit_ST7735.cpp.o
                0x00000000080046a4                Adafruit_ST7735::initR(unsigned char)
 .text._ZN15Adafruit_ST773511setRotationEh
                0x00000000080047c0      0x248 build/machines/cortex/armv7em/stm32f303/coroLabBoard/tft/Adafruit-ST7735-Library/Adafruit_ST7735.cpp.o
                0x00000000080047c0                Adafruit_ST7735::setRotation(unsigned char)
 .text._ZN15Adafruit_ST77xxC2Ev
                0x0000000008004a08       0x38 build/machines/cortex/armv7em/stm32f303/coroLabBoard/tft/Adafruit-ST7735-Library/Adafruit_ST77xx.cpp.o
                0x0000000008004a08                Adafruit_ST77xx::Adafruit_ST77xx()
                0x0000000008004a08                Adafruit_ST77xx::Adafruit_ST77xx()
 .text._ZN15Adafruit_ST77xx11displayInitEPKh
                0x0000000008004a40       0xee build/machines/cortex/armv7em/stm32f303/coroLabBoard/tft/Adafruit-ST7735-Library/Adafruit_ST77xx.cpp.o
                0x0000000008004a40                Adafruit_ST77xx::displayInit(unsigned char const*)
 *fill*         0x0000000008004b2e        0x2 
 .text._ZN15Adafruit_ST77xx5beginEm
                0x0000000008004b30       0x40 build/machines/cortex/armv7em/stm32f303/coroLabBoard/tft/Adafruit-ST7735-Library/Adafruit_ST77xx.cpp.o
                0x0000000008004b30                Adafruit_ST77xx::begin(unsigned long)
 .text._ZN15Adafruit_ST77xx10commonInitEPKh
                0x0000000008004b70       0x2e build/machines/cortex/armv7em/stm32f303/coroLabBoard/tft/Adafruit-ST7735-Library/Adafruit_ST77xx.cpp.o
                0x0000000008004b70                Adafruit_ST77xx::commonInit(unsigned char const*)
 .text._ZN15Adafruit_ST77xx13setAddrWindowEtttt
                0x0000000008004b9e       0xd8 build/machines/cortex/armv7em/stm32f303/coroLabBoard/tft/Adafruit-ST7735-Library/Adafruit_ST77xx.cpp.o
                0x0000000008004b9e                Adafruit_ST77xx::setAddrWindow(unsigned short, unsigned short, unsigned short, unsigned short)
 *fill*         0x0000000008004c76        0x2 
 .text._ZN15Adafruit_ST77xx11setRotationEh
                0x0000000008004c78       0xf0 build/machines/cortex/armv7em/stm32f303/coroLabBoard/tft/Adafruit-ST7735-Library/Adafruit_ST77xx.cpp.o
                0x0000000008004c78                Adafruit_ST77xx::setRotation(unsigned char)
 .text._ZN5PrintC2Ev
                0x0000000008004d68       0x24 build/machines/cortex/armv7em/stm32f303/coroLabBoard/tft/Adafruit-GFX-Library/Adafruit_GFX.cpp.o
                0x0000000008004d68                Print::Print()
                0x0000000008004d68                Print::Print()
 .text._ZN12Adafruit_GFXC2Ess
                0x0000000008004d8c       0x8c build/machines/cortex/armv7em/stm32f303/coroLabBoard/tft/Adafruit-GFX-Library/Adafruit_GFX.cpp.o
                0x0000000008004d8c                Adafruit_GFX::Adafruit_GFX(short, short)
                0x0000000008004d8c                Adafruit_GFX::Adafruit_GFX(short, short)
 .text._ZN12Adafruit_GFX9writeLineEsssst
                0x0000000008004e18      0x14a build/machines/cortex/armv7em/stm32f303/coroLabBoard/tft/Adafruit-GFX-Library/Adafruit_GFX.cpp.o
                0x0000000008004e18                Adafruit_GFX::writeLine(short, short, short, short, unsigned short)
 .text._ZN12Adafruit_GFX10startWriteEv
                0x0000000008004f62       0x12 build/machines/cortex/armv7em/stm32f303/coroLabBoard/tft/Adafruit-GFX-Library/Adafruit_GFX.cpp.o
                0x0000000008004f62                Adafruit_GFX::startWrite()
 .text._ZN12Adafruit_GFX10writePixelEsst
                0x0000000008004f74       0x38 build/machines/cortex/armv7em/stm32f303/coroLabBoard/tft/Adafruit-GFX-Library/Adafruit_GFX.cpp.o
                0x0000000008004f74                Adafruit_GFX::writePixel(short, short, unsigned short)
 .text._ZN12Adafruit_GFX14writeFastVLineEssst
                0x0000000008004fac       0x40 build/machines/cortex/armv7em/stm32f303/coroLabBoard/tft/Adafruit-GFX-Library/Adafruit_GFX.cpp.o
                0x0000000008004fac                Adafruit_GFX::writeFastVLine(short, short, short, unsigned short)
 .text._ZN12Adafruit_GFX14writeFastHLineEssst
                0x0000000008004fec       0x40 build/machines/cortex/armv7em/stm32f303/coroLabBoard/tft/Adafruit-GFX-Library/Adafruit_GFX.cpp.o
                0x0000000008004fec                Adafruit_GFX::writeFastHLine(short, short, short, unsigned short)
 .text._ZN12Adafruit_GFX13writeFillRectEsssst
                0x000000000800502c       0x46 build/machines/cortex/armv7em/stm32f303/coroLabBoard/tft/Adafruit-GFX-Library/Adafruit_GFX.cpp.o
                0x000000000800502c                Adafruit_GFX::writeFillRect(short, short, short, short, unsigned short)
 .text._ZN12Adafruit_GFX8endWriteEv
                0x0000000008005072       0x12 build/machines/cortex/armv7em/stm32f303/coroLabBoard/tft/Adafruit-GFX-Library/Adafruit_GFX.cpp.o
                0x0000000008005072                Adafruit_GFX::endWrite()
 .text._ZN12Adafruit_GFX13drawFastVLineEssst
                0x0000000008005084       0x6a build/machines/cortex/armv7em/stm32f303/coroLabBoard/tft/Adafruit-GFX-Library/Adafruit_GFX.cpp.o
                0x0000000008005084                Adafruit_GFX::drawFastVLine(short, short, short, unsigned short)
 .text._ZN12Adafruit_GFX13drawFastHLineEssst
                0x00000000080050ee       0x68 build/machines/cortex/armv7em/stm32f303/coroLabBoard/tft/Adafruit-GFX-Library/Adafruit_GFX.cpp.o
                0x00000000080050ee                Adafruit_GFX::drawFastHLine(short, short, short, unsigned short)
 .text._ZN12Adafruit_GFX8fillRectEsssst
                0x0000000008005156       0x7c build/machines/cortex/armv7em/stm32f303/coroLabBoard/tft/Adafruit-GFX-Library/Adafruit_GFX.cpp.o
                0x0000000008005156                Adafruit_GFX::fillRect(short, short, short, short, unsigned short)
 .text._ZN12Adafruit_GFX10fillScreenEt
                0x00000000080051d2       0x38 build/machines/cortex/armv7em/stm32f303/coroLabBoard/tft/Adafruit-GFX-Library/Adafruit_GFX.cpp.o
                0x00000000080051d2                Adafruit_GFX::fillScreen(unsigned short)
 .text._ZN12Adafruit_GFX8drawLineEsssst
                0x000000000800520a       0xfa build/machines/cortex/armv7em/stm32f303/coroLabBoard/tft/Adafruit-GFX-Library/Adafruit_GFX.cpp.o
                0x000000000800520a                Adafruit_GFX::drawLine(short, short, short, short, unsigned short)
 .text._ZN12Adafruit_GFX8drawRectEsssst
                0x0000000008005304       0xc6 build/machines/cortex/armv7em/stm32f303/coroLabBoard/tft/Adafruit-GFX-Library/Adafruit_GFX.cpp.o
                0x0000000008005304                Adafruit_GFX::drawRect(short, short, short, short, unsigned short)
 *fill*         0x00000000080053ca        0x2 
 .text._ZN12Adafruit_GFX8drawCharEsshtth
                0x00000000080053cc      0x478 build/machines/cortex/armv7em/stm32f303/coroLabBoard/tft/Adafruit-GFX-Library/Adafruit_GFX.cpp.o
                0x00000000080053cc                Adafruit_GFX::drawChar(short, short, unsigned char, unsigned short, unsigned short, unsigned char)
 .text._ZN12Adafruit_GFX5writeEh
                0x0000000008005844      0x232 build/machines/cortex/armv7em/stm32f303/coroLabBoard/tft/Adafruit-GFX-Library/Adafruit_GFX.cpp.o
                0x0000000008005844                Adafruit_GFX::write(unsigned char)
 .text._ZN12Adafruit_GFX9setCursorEss
                0x0000000008005a76       0x26 build/machines/cortex/armv7em/stm32f303/coroLabBoard/tft/Adafruit-GFX-Library/Adafruit_GFX.cpp.o
                0x0000000008005a76                Adafruit_GFX::setCursor(short, short)
 .text._ZN12Adafruit_GFX12setTextColorEt
                0x0000000008005a9c       0x24 build/machines/cortex/armv7em/stm32f303/coroLabBoard/tft/Adafruit-GFX-Library/Adafruit_GFX.cpp.o
                0x0000000008005a9c                Adafruit_GFX::setTextColor(unsigned short)
 .text._ZN12Adafruit_GFX11setRotationEh
                0x0000000008005ac0       0x70 build/machines/cortex/armv7em/stm32f303/coroLabBoard/tft/Adafruit-GFX-Library/Adafruit_GFX.cpp.o
                0x0000000008005ac0                Adafruit_GFX::setRotation(unsigned char)
 .text._ZN12Adafruit_GFX7setFontEPK7GFXfont
                0x0000000008005b30       0x56 build/machines/cortex/armv7em/stm32f303/coroLabBoard/tft/Adafruit-GFX-Library/Adafruit_GFX.cpp.o
                0x0000000008005b30                Adafruit_GFX::setFont(GFXfont const*)
 .text._ZN12Adafruit_GFX13invertDisplayEb
                0x0000000008005b86       0x16 build/machines/cortex/armv7em/stm32f303/coroLabBoard/tft/Adafruit-GFX-Library/Adafruit_GFX.cpp.o
                0x0000000008005b86                Adafruit_GFX::invertDisplay(bool)
 .text._ZN15Adafruit_SPITFT10writePixelEt
                0x0000000008005b9c       0x2c build/machines/cortex/armv7em/stm32f303/coroLabBoard/tft/Adafruit-GFX-Library/Adafruit_SPITFT.cpp.o
                0x0000000008005b9c                Adafruit_SPITFT::writePixel(unsigned short)
 .text._ZN15Adafruit_SPITFTC2Ett
                0x0000000008005bc8       0x50 build/machines/cortex/armv7em/stm32f303/coroLabBoard/tft/Adafruit-GFX-Library/Adafruit_SPITFT.cpp.o
                0x0000000008005bc8                Adafruit_SPITFT::Adafruit_SPITFT(unsigned short, unsigned short)
                0x0000000008005bc8                Adafruit_SPITFT::Adafruit_SPITFT(unsigned short, unsigned short)
 .text._ZN15Adafruit_SPITFT7initSPIEm
                0x0000000008005c18       0x30 build/machines/cortex/armv7em/stm32f303/coroLabBoard/tft/Adafruit-GFX-Library/Adafruit_SPITFT.cpp.o
                0x0000000008005c18                Adafruit_SPITFT::initSPI(unsigned long)
 .text._ZN15Adafruit_SPITFT8spiWriteEh
                0x0000000008005c48       0x1c build/machines/cortex/armv7em/stm32f303/coroLabBoard/tft/Adafruit-GFX-Library/Adafruit_SPITFT.cpp.o
                0x0000000008005c48                Adafruit_SPITFT::spiWrite(unsigned char)
 .text._ZN15Adafruit_SPITFT10startWriteEv
                0x0000000008005c64       0x1c build/machines/cortex/armv7em/stm32f303/coroLabBoard/tft/Adafruit-GFX-Library/Adafruit_SPITFT.cpp.o
                0x0000000008005c64                Adafruit_SPITFT::startWrite()
 .text._ZN15Adafruit_SPITFT8endWriteEv
                0x0000000008005c80       0x1a build/machines/cortex/armv7em/stm32f303/coroLabBoard/tft/Adafruit-GFX-Library/Adafruit_SPITFT.cpp.o
                0x0000000008005c80                Adafruit_SPITFT::endWrite()
 .text._ZN15Adafruit_SPITFT12writeCommandEh
                0x0000000008005c9a       0x32 build/machines/cortex/armv7em/stm32f303/coroLabBoard/tft/Adafruit-GFX-Library/Adafruit_SPITFT.cpp.o
                0x0000000008005c9a                Adafruit_SPITFT::writeCommand(unsigned char)
 .text._ZN15Adafruit_SPITFT10writeColorEtm
                0x0000000008005ccc       0x44 build/machines/cortex/armv7em/stm32f303/coroLabBoard/tft/Adafruit-GFX-Library/Adafruit_SPITFT.cpp.o
                0x0000000008005ccc                Adafruit_SPITFT::writeColor(unsigned short, unsigned long)
 .text._ZN15Adafruit_SPITFT10writePixelEsst
                0x0000000008005d10       0x70 build/machines/cortex/armv7em/stm32f303/coroLabBoard/tft/Adafruit-GFX-Library/Adafruit_SPITFT.cpp.o
                0x0000000008005d10                Adafruit_SPITFT::writePixel(short, short, unsigned short)
 .text._ZN15Adafruit_SPITFT13writeFillRectEsssst
                0x0000000008005d80      0x106 build/machines/cortex/armv7em/stm32f303/coroLabBoard/tft/Adafruit-GFX-Library/Adafruit_SPITFT.cpp.o
                0x0000000008005d80                Adafruit_SPITFT::writeFillRect(short, short, short, short, unsigned short)
 .text._ZN15Adafruit_SPITFT14writeFastVLineEssst
                0x0000000008005e86       0x42 build/machines/cortex/armv7em/stm32f303/coroLabBoard/tft/Adafruit-GFX-Library/Adafruit_SPITFT.cpp.o
                0x0000000008005e86                Adafruit_SPITFT::writeFastVLine(short, short, short, unsigned short)
 .text._ZN15Adafruit_SPITFT14writeFastHLineEssst
                0x0000000008005ec8       0x44 build/machines/cortex/armv7em/stm32f303/coroLabBoard/tft/Adafruit-GFX-Library/Adafruit_SPITFT.cpp.o
                0x0000000008005ec8                Adafruit_SPITFT::writeFastHLine(short, short, short, unsigned short)
 .text._ZN15Adafruit_SPITFT9drawPixelEsst
                0x0000000008005f0c       0x50 build/machines/cortex/armv7em/stm32f303/coroLabBoard/tft/Adafruit-GFX-Library/Adafruit_SPITFT.cpp.o
                0x0000000008005f0c                Adafruit_SPITFT::drawPixel(short, short, unsigned short)
 .text._ZN15Adafruit_SPITFT13drawFastVLineEssst
                0x0000000008005f5c       0x58 build/machines/cortex/armv7em/stm32f303/coroLabBoard/tft/Adafruit-GFX-Library/Adafruit_SPITFT.cpp.o
                0x0000000008005f5c                Adafruit_SPITFT::drawFastVLine(short, short, short, unsigned short)
 .text._ZN15Adafruit_SPITFT13drawFastHLineEssst
                0x0000000008005fb4       0x58 build/machines/cortex/armv7em/stm32f303/coroLabBoard/tft/Adafruit-GFX-Library/Adafruit_SPITFT.cpp.o
                0x0000000008005fb4                Adafruit_SPITFT::drawFastHLine(short, short, short, unsigned short)
 .text._ZN15Adafruit_SPITFT8fillRectEsssst
                0x000000000800600c       0x5e build/machines/cortex/armv7em/stm32f303/coroLabBoard/tft/Adafruit-GFX-Library/Adafruit_SPITFT.cpp.o
                0x000000000800600c                Adafruit_SPITFT::fillRect(short, short, short, short, unsigned short)
 .text._ZN15Adafruit_SPITFT13invertDisplayEb
                0x000000000800606a       0x48 build/machines/cortex/armv7em/stm32f303/coroLabBoard/tft/Adafruit-GFX-Library/Adafruit_SPITFT.cpp.o
                0x000000000800606a                Adafruit_SPITFT::invertDisplay(bool)
 *fill*         0x00000000080060b2        0x2 
 .text._malloc_r
                0x00000000080060b4      0x560 /opt/gcc-arm-none-eabi-10.3-2021.07/bin/../lib/gcc/arm-none-eabi/10.3.1/../../../../arm-none-eabi/lib/thumb/v7e-m/nofp/libc.a(lib_a-mallocr.o)
                0x00000000080060b4                _malloc_r
 .text.memset   0x0000000008006614       0xa4 /opt/gcc-arm-none-eabi-10.3-2021.07/bin/../lib/gcc/arm-none-eabi/10.3.1/../../../../arm-none-eabi/lib/thumb/v7e-m/nofp/libc.a(lib_a-memset.o)
                0x0000000008006614                memset
 .text.__malloc_lock
                0x00000000080066b8        0xc /opt/gcc-arm-none-eabi-10.3-2021.07/bin/../lib/gcc/arm-none-eabi/10.3.1/../../../../arm-none-eabi/lib/thumb/v7e-m/nofp/libc.a(lib_a-mlock.o)
                0x00000000080066b8                __malloc_lock
 .text.__malloc_unlock
                0x00000000080066c4        0xc /opt/gcc-arm-none-eabi-10.3-2021.07/bin/../lib/gcc/arm-none-eabi/10.3.1/../../../../arm-none-eabi/lib/thumb/v7e-m/nofp/libc.a(lib_a-mlock.o)
                0x00000000080066c4                __malloc_unlock
 .text.printf   0x00000000080066d0       0x28 /opt/gcc-arm-none-eabi-10.3-2021.07/bin/../lib/gcc/arm-none-eabi/10.3.1/../../../../arm-none-eabi/lib/thumb/v7e-m/nofp/libc.a(lib_a-printf.o)
                0x00000000080066d0                printf
 .text._sbrk_r  0x00000000080066f8       0x24 /opt/gcc-arm-none-eabi-10.3-2021.07/bin/../lib/gcc/arm-none-eabi/10.3.1/../../../../arm-none-eabi/lib/thumb/v7e-m/nofp/libc.a(lib_a-sbrkr.o)
                0x00000000080066f8                _sbrk_r
 .text.strncpy  0x000000000800671c       0x64 /opt/gcc-arm-none-eabi-10.3-2021.07/bin/../lib/gcc/arm-none-eabi/10.3.1/../../../../arm-none-eabi/lib/thumb/v7e-m/nofp/libc.a(lib_a-strncpy.o)
                0x000000000800671c                strncpy
 .text._vfprintf_r
                0x0000000008006780     0x1ad4 /opt/gcc-arm-none-eabi-10.3-2021.07/bin/../lib/gcc/arm-none-eabi/10.3.1/../../../../arm-none-eabi/lib/thumb/v7e-m/nofp/libc.a(lib_a-vfprintf.o)
                0x0000000008006780                _vfprintf_r
 .text.__sbprintf
                0x0000000008008254       0x80 /opt/gcc-arm-none-eabi-10.3-2021.07/bin/../lib/gcc/arm-none-eabi/10.3.1/../../../../arm-none-eabi/lib/thumb/v7e-m/nofp/libc.a(lib_a-vfprintf.o)
 .text.__swsetup_r
                0x00000000080082d4       0xd4 /opt/gcc-arm-none-eabi-10.3-2021.07/bin/../lib/gcc/arm-none-eabi/10.3.1/../../../../arm-none-eabi/lib/thumb/v7e-m/nofp/libc.a(lib_a-wsetup.o)
                0x00000000080082d4                __swsetup_r
 .text.quorem   0x00000000080083a8      0x124 /opt/gcc-arm-none-eabi-10.3-2021.07/bin/../lib/gcc/arm-none-eabi/10.3.1/../../../../arm-none-eabi/lib/thumb/v7e-m/nofp/libc.a(lib_a-dtoa.o)
 *fill*         0x00000000080084cc        0x4 
 .text._dtoa_r  0x00000000080084d0      0xec4 /opt/gcc-arm-none-eabi-10.3-2021.07/bin/../lib/gcc/arm-none-eabi/10.3.1/../../../../arm-none-eabi/lib/thumb/v7e-m/nofp/libc.a(lib_a-dtoa.o)
                0x00000000080084d0                _dtoa_r
 .text.__sflush_r
                0x0000000008009394      0x120 /opt/gcc-arm-none-eabi-10.3-2021.07/bin/../lib/gcc/arm-none-eabi/10.3.1/../../../../arm-none-eabi/lib/thumb/v7e-m/nofp/libc.a(lib_a-fflush.o)
                0x0000000008009394                __sflush_r
 .text._fflush_r
                0x00000000080094b4       0x5c /opt/gcc-arm-none-eabi-10.3-2021.07/bin/../lib/gcc/arm-none-eabi/10.3.1/../../../../arm-none-eabi/lib/thumb/v7e-m/nofp/libc.a(lib_a-fflush.o)
                0x00000000080094b4                _fflush_r
 .text._cleanup_r
                0x0000000008009510        0xc /opt/gcc-arm-none-eabi-10.3-2021.07/bin/../lib/gcc/arm-none-eabi/10.3.1/../../../../arm-none-eabi/lib/thumb/v7e-m/nofp/libc.a(lib_a-findfp.o)
                0x0000000008009510                _cleanup_r
 .text.__sinit  0x000000000800951c      0x10c /opt/gcc-arm-none-eabi-10.3-2021.07/bin/../lib/gcc/arm-none-eabi/10.3.1/../../../../arm-none-eabi/lib/thumb/v7e-m/nofp/libc.a(lib_a-findfp.o)
                0x000000000800951c                __sinit
 .text.__sfp_lock_acquire
                0x0000000008009628        0xc /opt/gcc-arm-none-eabi-10.3-2021.07/bin/../lib/gcc/arm-none-eabi/10.3.1/../../../../arm-none-eabi/lib/thumb/v7e-m/nofp/libc.a(lib_a-findfp.o)
                0x0000000008009628                __sfp_lock_acquire
 .text.__sfp_lock_release
                0x0000000008009634        0xc /opt/gcc-arm-none-eabi-10.3-2021.07/bin/../lib/gcc/arm-none-eabi/10.3.1/../../../../arm-none-eabi/lib/thumb/v7e-m/nofp/libc.a(lib_a-findfp.o)
                0x0000000008009634                __sfp_lock_release
 .text._malloc_trim_r
                0x0000000008009640       0xa0 /opt/gcc-arm-none-eabi-10.3-2021.07/bin/../lib/gcc/arm-none-eabi/10.3.1/../../../../arm-none-eabi/lib/thumb/v7e-m/nofp/libc.a(lib_a-freer.o)
                0x0000000008009640                _malloc_trim_r
 .text._free_r  0x00000000080096e0      0x20c /opt/gcc-arm-none-eabi-10.3-2021.07/bin/../lib/gcc/arm-none-eabi/10.3.1/../../../../arm-none-eabi/lib/thumb/v7e-m/nofp/libc.a(lib_a-freer.o)
                0x00000000080096e0                _free_r
 .text._fwalk_reent
                0x00000000080098ec       0x48 /opt/gcc-arm-none-eabi-10.3-2021.07/bin/../lib/gcc/arm-none-eabi/10.3.1/../../../../arm-none-eabi/lib/thumb/v7e-m/nofp/libc.a(lib_a-fwalk.o)
                0x00000000080098ec                _fwalk_reent
 .text._localeconv_r
                0x0000000008009934        0x8 /opt/gcc-arm-none-eabi-10.3-2021.07/bin/../lib/gcc/arm-none-eabi/10.3.1/../../../../arm-none-eabi/lib/thumb/v7e-m/nofp/libc.a(lib_a-localeconv.o)
                0x0000000008009934                _localeconv_r
 .text.__retarget_lock_init_recursive
                0x000000000800993c        0x4 /opt/gcc-arm-none-eabi-10.3-2021.07/bin/../lib/gcc/arm-none-eabi/10.3.1/../../../../arm-none-eabi/lib/thumb/v7e-m/nofp/libc.a(lib_a-lock.o)
                0x000000000800993c                __retarget_lock_init_recursive
 .text.__retarget_lock_close_recursive
                0x0000000008009940        0x4 /opt/gcc-arm-none-eabi-10.3-2021.07/bin/../lib/gcc/arm-none-eabi/10.3.1/../../../../arm-none-eabi/lib/thumb/v7e-m/nofp/libc.a(lib_a-lock.o)
                0x0000000008009940                __retarget_lock_close_recursive
 .text.__retarget_lock_acquire_recursive
                0x0000000008009944        0x4 /opt/gcc-arm-none-eabi-10.3-2021.07/bin/../lib/gcc/arm-none-eabi/10.3.1/../../../../arm-none-eabi/lib/thumb/v7e-m/nofp/libc.a(lib_a-lock.o)
                0x0000000008009944                __retarget_lock_acquire_recursive
 .text.__retarget_lock_release_recursive
                0x0000000008009948        0x4 /opt/gcc-arm-none-eabi-10.3-2021.07/bin/../lib/gcc/arm-none-eabi/10.3.1/../../../../arm-none-eabi/lib/thumb/v7e-m/nofp/libc.a(lib_a-lock.o)
                0x0000000008009948                __retarget_lock_release_recursive
 .text.__smakebuf_r
                0x000000000800994c       0xe0 /opt/gcc-arm-none-eabi-10.3-2021.07/bin/../lib/gcc/arm-none-eabi/10.3.1/../../../../arm-none-eabi/lib/thumb/v7e-m/nofp/libc.a(lib_a-makebuf.o)
                0x000000000800994c                __smakebuf_r
 .text._Balloc  0x0000000008009a2c       0x4c /opt/gcc-arm-none-eabi-10.3-2021.07/bin/../lib/gcc/arm-none-eabi/10.3.1/../../../../arm-none-eabi/lib/thumb/v7e-m/nofp/libc.a(lib_a-mprec.o)
                0x0000000008009a2c                _Balloc
 .text._Bfree   0x0000000008009a78       0x14 /opt/gcc-arm-none-eabi-10.3-2021.07/bin/../lib/gcc/arm-none-eabi/10.3.1/../../../../arm-none-eabi/lib/thumb/v7e-m/nofp/libc.a(lib_a-mprec.o)
                0x0000000008009a78                _Bfree
 .text.__multadd
                0x0000000008009a8c       0xa0 /opt/gcc-arm-none-eabi-10.3-2021.07/bin/../lib/gcc/arm-none-eabi/10.3.1/../../../../arm-none-eabi/lib/thumb/v7e-m/nofp/libc.a(lib_a-mprec.o)
                0x0000000008009a8c                __multadd
 .text.__hi0bits
                0x0000000008009b2c       0x40 /opt/gcc-arm-none-eabi-10.3-2021.07/bin/../lib/gcc/arm-none-eabi/10.3.1/../../../../arm-none-eabi/lib/thumb/v7e-m/nofp/libc.a(lib_a-mprec.o)
                0x0000000008009b2c                __hi0bits
 .text.__lo0bits
                0x0000000008009b6c       0x5c /opt/gcc-arm-none-eabi-10.3-2021.07/bin/../lib/gcc/arm-none-eabi/10.3.1/../../../../arm-none-eabi/lib/thumb/v7e-m/nofp/libc.a(lib_a-mprec.o)
                0x0000000008009b6c                __lo0bits
 .text.__i2b    0x0000000008009bc8       0x5c /opt/gcc-arm-none-eabi-10.3-2021.07/bin/../lib/gcc/arm-none-eabi/10.3.1/../../../../arm-none-eabi/lib/thumb/v7e-m/nofp/libc.a(lib_a-mprec.o)
                0x0000000008009bc8                __i2b
 .text.__multiply
                0x0000000008009c24      0x15c /opt/gcc-arm-none-eabi-10.3-2021.07/bin/../lib/gcc/arm-none-eabi/10.3.1/../../../../arm-none-eabi/lib/thumb/v7e-m/nofp/libc.a(lib_a-mprec.o)
                0x0000000008009c24                __multiply
 .text.__pow5mult
                0x0000000008009d80       0xc0 /opt/gcc-arm-none-eabi-10.3-2021.07/bin/../lib/gcc/arm-none-eabi/10.3.1/../../../../arm-none-eabi/lib/thumb/v7e-m/nofp/libc.a(lib_a-mprec.o)
                0x0000000008009d80                __pow5mult
 .text.__lshift
                0x0000000008009e40       0xf0 /opt/gcc-arm-none-eabi-10.3-2021.07/bin/../lib/gcc/arm-none-eabi/10.3.1/../../../../arm-none-eabi/lib/thumb/v7e-m/nofp/libc.a(lib_a-mprec.o)
                0x0000000008009e40                __lshift
 .text.__mcmp   0x0000000008009f30       0x40 /opt/gcc-arm-none-eabi-10.3-2021.07/bin/../lib/gcc/arm-none-eabi/10.3.1/../../../../arm-none-eabi/lib/thumb/v7e-m/nofp/libc.a(lib_a-mprec.o)
                0x0000000008009f30                __mcmp
 .text.__mdiff  0x0000000008009f70      0x14c /opt/gcc-arm-none-eabi-10.3-2021.07/bin/../lib/gcc/arm-none-eabi/10.3.1/../../../../arm-none-eabi/lib/thumb/v7e-m/nofp/libc.a(lib_a-mprec.o)
                0x0000000008009f70                __mdiff
 .text.__d2b    0x000000000800a0bc       0xc4 /opt/gcc-arm-none-eabi-10.3-2021.07/bin/../lib/gcc/arm-none-eabi/10.3.1/../../../../arm-none-eabi/lib/thumb/v7e-m/nofp/libc.a(lib_a-mprec.o)
                0x000000000800a0bc                __d2b
 .text.frexp    0x000000000800a180       0x70 /opt/gcc-arm-none-eabi-10.3-2021.07/bin/../lib/gcc/arm-none-eabi/10.3.1/../../../../arm-none-eabi/lib/thumb/v7e-m/nofp/libc.a(lib_a-s_frexp.o)
                0x000000000800a180                frexp
 .text.__sread  0x000000000800a1f0       0x24 /opt/gcc-arm-none-eabi-10.3-2021.07/bin/../lib/gcc/arm-none-eabi/10.3.1/../../../../arm-none-eabi/lib/thumb/v7e-m/nofp/libc.a(lib_a-stdio.o)
                0x000000000800a1f0                __sread
 .text.__swrite
                0x000000000800a214       0x40 /opt/gcc-arm-none-eabi-10.3-2021.07/bin/../lib/gcc/arm-none-eabi/10.3.1/../../../../arm-none-eabi/lib/thumb/v7e-m/nofp/libc.a(lib_a-stdio.o)
                0x000000000800a214                __swrite
 .text.__sseek  0x000000000800a254       0x20 /opt/gcc-arm-none-eabi-10.3-2021.07/bin/../lib/gcc/arm-none-eabi/10.3.1/../../../../arm-none-eabi/lib/thumb/v7e-m/nofp/libc.a(lib_a-stdio.o)
                0x000000000800a254                __sseek
 .text.__sclose
                0x000000000800a274        0x8 /opt/gcc-arm-none-eabi-10.3-2021.07/bin/../lib/gcc/arm-none-eabi/10.3.1/../../../../arm-none-eabi/lib/thumb/v7e-m/nofp/libc.a(lib_a-stdio.o)
                0x000000000800a274                __sclose
 .text.__sprint_r.part.0
                0x000000000800a27c       0x78 /opt/gcc-arm-none-eabi-10.3-2021.07/bin/../lib/gcc/arm-none-eabi/10.3.1/../../../../arm-none-eabi/lib/thumb/v7e-m/nofp/libc.a(lib_a-vfiprintf.o)
 .text.__sprint_r
                0x000000000800a2f4       0x14 /opt/gcc-arm-none-eabi-10.3-2021.07/bin/../lib/gcc/arm-none-eabi/10.3.1/../../../../arm-none-eabi/lib/thumb/v7e-m/nofp/libc.a(lib_a-vfiprintf.o)
                0x000000000800a2f4                __sprint_r
 .text._vfiprintf_r
                0x000000000800a308      0xda0 /opt/gcc-arm-none-eabi-10.3-2021.07/bin/../lib/gcc/arm-none-eabi/10.3.1/../../../../arm-none-eabi/lib/thumb/v7e-m/nofp/libc.a(lib_a-vfiprintf.o)
                0x000000000800a308                _vfiprintf_r
 .text.__sbprintf
                0x000000000800b0a8       0x80 /opt/gcc-arm-none-eabi-10.3-2021.07/bin/../lib/gcc/arm-none-eabi/10.3.1/../../../../arm-none-eabi/lib/thumb/v7e-m/nofp/libc.a(lib_a-vfiprintf.o)
 .text._write_r
                0x000000000800b128       0x2c /opt/gcc-arm-none-eabi-10.3-2021.07/bin/../lib/gcc/arm-none-eabi/10.3.1/../../../../arm-none-eabi/lib/thumb/v7e-m/nofp/libc.a(lib_a-writer.o)
                0x000000000800b128                _write_r
 .text.__assert_func
                0x000000000800b154       0x40 /opt/gcc-arm-none-eabi-10.3-2021.07/bin/../lib/gcc/arm-none-eabi/10.3.1/../../../../arm-none-eabi/lib/thumb/v7e-m/nofp/libc.a(lib_a-assert.o)
                0x000000000800b154                __assert_func
 .text._calloc_r
                0x000000000800b194       0x78 /opt/gcc-arm-none-eabi-10.3-2021.07/bin/../lib/gcc/arm-none-eabi/10.3.1/../../../../arm-none-eabi/lib/thumb/v7e-m/nofp/libc.a(lib_a-callocr.o)
                0x000000000800b194                _calloc_r
 .text._close_r
                0x000000000800b20c       0x24 /opt/gcc-arm-none-eabi-10.3-2021.07/bin/../lib/gcc/arm-none-eabi/10.3.1/../../../../arm-none-eabi/lib/thumb/v7e-m/nofp/libc.a(lib_a-closer.o)
                0x000000000800b20c                _close_r
 .text.__errno  0x000000000800b230        0xc /opt/gcc-arm-none-eabi-10.3-2021.07/bin/../lib/gcc/arm-none-eabi/10.3.1/../../../../arm-none-eabi/lib/thumb/v7e-m/nofp/libc.a(lib_a-errno.o)
                0x000000000800b230                __errno
 .text._fclose_r
                0x000000000800b23c       0xcc /opt/gcc-arm-none-eabi-10.3-2021.07/bin/../lib/gcc/arm-none-eabi/10.3.1/../../../../arm-none-eabi/lib/thumb/v7e-m/nofp/libc.a(lib_a-fclose.o)
                0x000000000800b23c                _fclose_r
 .text.fiprintf
                0x000000000800b308       0x28 /opt/gcc-arm-none-eabi-10.3-2021.07/bin/../lib/gcc/arm-none-eabi/10.3.1/../../../../arm-none-eabi/lib/thumb/v7e-m/nofp/libc.a(lib_a-fiprintf.o)
                0x000000000800b308                fiprintf
 .text.__fputwc
                0x000000000800b330       0xa8 /opt/gcc-arm-none-eabi-10.3-2021.07/bin/../lib/gcc/arm-none-eabi/10.3.1/../../../../arm-none-eabi/lib/thumb/v7e-m/nofp/libc.a(lib_a-fputwc.o)
                0x000000000800b330                __fputwc
 .text._fputwc_r
                0x000000000800b3d8       0x68 /opt/gcc-arm-none-eabi-10.3-2021.07/bin/../lib/gcc/arm-none-eabi/10.3.1/../../../../arm-none-eabi/lib/thumb/v7e-m/nofp/libc.a(lib_a-fputwc.o)
                0x000000000800b3d8                _fputwc_r
 .text._fstat_r
                0x000000000800b440       0x2c /opt/gcc-arm-none-eabi-10.3-2021.07/bin/../lib/gcc/arm-none-eabi/10.3.1/../../../../arm-none-eabi/lib/thumb/v7e-m/nofp/libc.a(lib_a-fstatr.o)
                0x000000000800b440                _fstat_r
 .text.__sfvwrite_r
                0x000000000800b46c      0x2e8 /opt/gcc-arm-none-eabi-10.3-2021.07/bin/../lib/gcc/arm-none-eabi/10.3.1/../../../../arm-none-eabi/lib/thumb/v7e-m/nofp/libc.a(lib_a-fvwrite.o)
                0x000000000800b46c                __sfvwrite_r
 .text._isatty_r
                0x000000000800b754       0x24 /opt/gcc-arm-none-eabi-10.3-2021.07/bin/../lib/gcc/arm-none-eabi/10.3.1/../../../../arm-none-eabi/lib/thumb/v7e-m/nofp/libc.a(lib_a-isattyr.o)
                0x000000000800b754                _isatty_r
 .text.__locale_mb_cur_max
                0x000000000800b778        0xc /opt/gcc-arm-none-eabi-10.3-2021.07/bin/../lib/gcc/arm-none-eabi/10.3.1/../../../../arm-none-eabi/lib/thumb/v7e-m/nofp/libc.a(lib_a-locale.o)
                0x000000000800b778                __locale_mb_cur_max
 .text._lseek_r
                0x000000000800b784       0x2c /opt/gcc-arm-none-eabi-10.3-2021.07/bin/../lib/gcc/arm-none-eabi/10.3.1/../../../../arm-none-eabi/lib/thumb/v7e-m/nofp/libc.a(lib_a-lseekr.o)
                0x000000000800b784                _lseek_r
 .text.__ascii_mbtowc
                0x000000000800b7b0       0x2c /opt/gcc-arm-none-eabi-10.3-2021.07/bin/../lib/gcc/arm-none-eabi/10.3.1/../../../../arm-none-eabi/lib/thumb/v7e-m/nofp/libc.a(lib_a-mbtowc_r.o)
                0x000000000800b7b0                __ascii_mbtowc
 .text.memmove  0x000000000800b7dc       0xf8 /opt/gcc-arm-none-eabi-10.3-2021.07/bin/../lib/gcc/arm-none-eabi/10.3.1/../../../../arm-none-eabi/lib/thumb/v7e-m/nofp/libc.a(lib_a-memmove.o)
                0x000000000800b7dc                memmove
 .text._read_r  0x000000000800b8d4       0x2c /opt/gcc-arm-none-eabi-10.3-2021.07/bin/../lib/gcc/arm-none-eabi/10.3.1/../../../../arm-none-eabi/lib/thumb/v7e-m/nofp/libc.a(lib_a-readr.o)
                0x000000000800b8d4                _read_r
 .text._realloc_r
                0x000000000800b900      0x3d8 /opt/gcc-arm-none-eabi-10.3-2021.07/bin/../lib/gcc/arm-none-eabi/10.3.1/../../../../arm-none-eabi/lib/thumb/v7e-m/nofp/libc.a(lib_a-reallocr.o)
                0x000000000800b900                _realloc_r
 .text.__swbuf_r
                0x000000000800bcd8       0xb0 /opt/gcc-arm-none-eabi-10.3-2021.07/bin/../lib/gcc/arm-none-eabi/10.3.1/../../../../arm-none-eabi/lib/thumb/v7e-m/nofp/libc.a(lib_a-wbuf.o)
                0x000000000800bcd8                __swbuf_r
 .text._wcrtomb_r
                0x000000000800bd88       0x3c /opt/gcc-arm-none-eabi-10.3-2021.07/bin/../lib/gcc/arm-none-eabi/10.3.1/../../../../arm-none-eabi/lib/thumb/v7e-m/nofp/libc.a(lib_a-wcrtomb.o)
                0x000000000800bd88                _wcrtomb_r
 .text.__ascii_wctomb
                0x000000000800bdc4       0x1c /opt/gcc-arm-none-eabi-10.3-2021.07/bin/../lib/gcc/arm-none-eabi/10.3.1/../../../../arm-none-eabi/lib/thumb/v7e-m/nofp/libc.a(lib_a-wctomb_r.o)
                0x000000000800bdc4                __ascii_wctomb
 .text.abort    0x000000000800bde0       0x10 /opt/gcc-arm-none-eabi-10.3-2021.07/bin/../lib/gcc/arm-none-eabi/10.3.1/../../../../arm-none-eabi/lib/thumb/v7e-m/nofp/libc.a(lib_a-abort.o)
                0x000000000800bde0                abort
 .text.raise    0x000000000800bdf0       0x5c /opt/gcc-arm-none-eabi-10.3-2021.07/bin/../lib/gcc/arm-none-eabi/10.3.1/../../../../arm-none-eabi/lib/thumb/v7e-m/nofp/libc.a(lib_a-signal.o)
                0x000000000800bdf0                raise
 .text._kill_r  0x000000000800be4c       0x2c /opt/gcc-arm-none-eabi-10.3-2021.07/bin/../lib/gcc/arm-none-eabi/10.3.1/../../../../arm-none-eabi/lib/thumb/v7e-m/nofp/libc.a(lib_a-signalr.o)
                0x000000000800be4c                _kill_r
 .text._getpid_r
                0x000000000800be78        0x4 /opt/gcc-arm-none-eabi-10.3-2021.07/bin/../lib/gcc/arm-none-eabi/10.3.1/../../../../arm-none-eabi/lib/thumb/v7e-m/nofp/libc.a(lib_a-signalr.o)
                0x000000000800be78                _getpid_r
 *(.glue_7)
 .glue_7        0x000000000800be7c        0x0 linker stubs
 *(.glue_7t)
 .glue_7t       0x000000000800be7c        0x0 linker stubs
 *(.eh_frame)
 *(.init)
 *(.fini)
                0x000000000800be7c                . = ALIGN (0x4)
                0x000000000800be7c                _etext = .
                0x000000000800be7c                _exit = .

.vfp11_veneer   0x000000000800be7c        0x0
 .vfp11_veneer  0x000000000800be7c        0x0 linker stubs

.v4_bx          0x000000000800be7c        0x0
 .v4_bx         0x000000000800be7c        0x0 linker stubs

.iplt           0x000000000800be7c        0x0
 .iplt          0x000000000800be7c        0x0 build/os/tpl_os_kernel.c.o

.after_vectors  0x000000000800be7c       0x58
 .after_vectors
                0x000000000800be7c       0x58 build/machines/cortex/armv7em/stm32f303/startup_stm32f3xx.c.o
                0x000000000800be7c                system_init
                0x000000000800bea0                tpl_continue_reset_handler

.ARM.extab
 *(.ARM.extab* .gnu.linkonce.armextab.*)

.ARM            0x000000000800bed4        0x8
                0x000000000800bed4                __exidx_start = .
 *(.ARM.exidx*)
 .ARM.exidx     0x000000000800bed4        0x8 /opt/gcc-arm-none-eabi-10.3-2021.07/bin/../lib/gcc/arm-none-eabi/10.3.1/thumb/v7e-m/nofp/libgcc.a(_udivmoddi4.o)
                0x000000000800bedc                __exidx_end = .

.rel.dyn        0x000000000800bedc        0x0
 .rel.iplt      0x000000000800bedc        0x0 build/os/tpl_os_kernel.c.o

.preinit_array  0x000000000800bedc        0x4
                0x000000000800bedc                PROVIDE (__preinit_array_start = .)
 *(.preinit_array*)
 .preinit_array_sysinit
                0x000000000800bedc        0x4 build/machines/cortex/armv7em/stm32f303/startup_stm32f3xx.c.o
                0x000000000800bedc                p_system_init
                0x000000000800bee0                PROVIDE (__preinit_array_end = .)

.init_array     0x000000000800bee0        0x8
                0x000000000800bee0                PROVIDE (__init_array_start = .)
 *(SORT_BY_NAME(.init_array.*))
 *(.init_array*)
 .init_array    0x000000000800bee0        0x4 build/machines/cortex/armv7em/stm32f303/coroLabBoard/mcp23s17.cpp.o
 .init_array    0x000000000800bee4        0x4 build/machines/cortex/armv7em/stm32f303/coroLabBoard/tft/tft.cpp.o
                0x000000000800bee8                PROVIDE (__init_array_end = .)

.fini_array     0x000000000800bee8        0x0
                0x000000000800bee8                PROVIDE (__fini_array_start = .)
 *(.fini_array*)
 *(SORT_BY_NAME(.fini_array.*))
                0x000000000800bee8                PROVIDE (__fini_array_end = .)
                0x000000000800bee8                _sidata = .

.data           0x0000000020000000      0xacc load address 0x000000000800bee8
                0x0000000020000000                . = ALIGN (0x4)
                0x0000000020000000                _sdata = .
 *(.data)
 *(.data*)
 .data.SystemCoreClock
                0x0000000020000000        0x4 build/machines/cortex/armv7em/stm32f303/system_stm32f30x.c.o
                0x0000000020000000                SystemCoreClock
 .data.__malloc_av_
                0x0000000020000004      0x408 /opt/gcc-arm-none-eabi-10.3-2021.07/bin/../lib/gcc/arm-none-eabi/10.3.1/../../../../arm-none-eabi/lib/thumb/v7e-m/nofp/libc.a(lib_a-mallocr.o)
                0x0000000020000004                __malloc_av_
 .data.__malloc_sbrk_base
                0x000000002000040c        0x4 /opt/gcc-arm-none-eabi-10.3-2021.07/bin/../lib/gcc/arm-none-eabi/10.3.1/../../../../arm-none-eabi/lib/thumb/v7e-m/nofp/libc.a(lib_a-mallocr.o)
                0x000000002000040c                __malloc_sbrk_base
 .data.__malloc_trim_threshold
                0x0000000020000410        0x4 /opt/gcc-arm-none-eabi-10.3-2021.07/bin/../lib/gcc/arm-none-eabi/10.3.1/../../../../arm-none-eabi/lib/thumb/v7e-m/nofp/libc.a(lib_a-mallocr.o)
                0x0000000020000410                __malloc_trim_threshold
 .data._impure_ptr
                0x0000000020000414        0x4 /opt/gcc-arm-none-eabi-10.3-2021.07/bin/../lib/gcc/arm-none-eabi/10.3.1/../../../../arm-none-eabi/lib/thumb/v7e-m/nofp/libc.a(lib_a-impure.o)
                0x0000000020000414                _impure_ptr
 .data.impure_data
                0x0000000020000418      0x428 /opt/gcc-arm-none-eabi-10.3-2021.07/bin/../lib/gcc/arm-none-eabi/10.3.1/../../../../arm-none-eabi/lib/thumb/v7e-m/nofp/libc.a(lib_a-impure.o)
 .data.__global_locale
                0x0000000020000840      0x16c /opt/gcc-arm-none-eabi-10.3-2021.07/bin/../lib/gcc/arm-none-eabi/10.3.1/../../../../arm-none-eabi/lib/thumb/v7e-m/nofp/libc.a(lib_a-locale.o)
                0x0000000020000840                __global_locale
 *(.osVar)
 .osVar         0x00000000200009ac        0x1 build/os/tpl_os_timeobj_kernel.c.o
 .osVar         0x00000000200009ad        0x1 build/os/tpl_os_os_kernel.c.o
 *fill*         0x00000000200009ae        0x2 
 .osVar         0x00000000200009b0       0x14 build/os/tpl_os_interrupt_kernel.c.o
                0x00000000200009b0                tpl_locking_depth
                0x00000000200009b4                tpl_user_task_lock
                0x00000000200009b8                tpl_cpt_user_task_lock_All
                0x00000000200009bc                tpl_cpt_user_task_lock_OS
                0x00000000200009c0                tpl_cpt_os_task_lock
 .osVar         0x00000000200009c4      0x108 build/lab1/tpl_app_config.c.o
                0x00000000200009c4                tpl_kern
                0x00000000200009e0                tpl_ready_list
                0x00000000200009ec                tpl_tail_for_prio
                0x00000000200009f4                SystemCounter_counter_desc
                0x0000000020000a10                res_sched_rez_desc
                0x0000000020000a18                tpl_time_counter
                0x0000000020000a1c                IDLE_TASK_int_context
                0x0000000020000a40                IDLE_TASK_task_desc
                0x0000000020000a48                task2_int_context
                0x0000000020000a6c                task2_task_desc
                0x0000000020000a74                task1_int_context
                0x0000000020000a98                task1_task_desc
                0x0000000020000aa0                task3_int_context
                0x0000000020000ac4                task3_task_desc
 *(.Task_task2_SEC_VAR_POWER_ON_INIT_32BIT)
 *(.Task_task2_SEC_VAR_POWER_ON_INIT_16BIT)
 *(.Task_task2_SEC_VAR_POWER_ON_INIT_8BIT)
 *(.Task_task2_SEC_VAR_POWER_ON_INIT_BOOLEAN)
 *(.Task_task2_SEC_VAR_POWER_ON_INIT_UNSPECIFIED)
 *(.Task_task1_SEC_VAR_POWER_ON_INIT_32BIT)
 *(.Task_task1_SEC_VAR_POWER_ON_INIT_16BIT)
 *(.Task_task1_SEC_VAR_POWER_ON_INIT_8BIT)
 *(.Task_task1_SEC_VAR_POWER_ON_INIT_BOOLEAN)
 *(.Task_task1_SEC_VAR_POWER_ON_INIT_UNSPECIFIED)
 *(.Task_task3_SEC_VAR_POWER_ON_INIT_32BIT)
 *(.Task_task3_SEC_VAR_POWER_ON_INIT_16BIT)
 *(.Task_task3_SEC_VAR_POWER_ON_INIT_8BIT)
 *(.Task_task3_SEC_VAR_POWER_ON_INIT_BOOLEAN)
 *(.Task_task3_SEC_VAR_POWER_ON_INIT_UNSPECIFIED)
                0x0000000020000acc                . = ALIGN (0x4)
                0x0000000020000acc                _edata = .

.igot.plt       0x0000000020000acc        0x0 load address 0x000000000800c9b4
 .igot.plt      0x0000000020000acc        0x0 build/os/tpl_os_kernel.c.o

.Task_IDLE_TASKStack
                0x0000000020000acc      0x12c load address 0x000000000800c9b4
 .Task_IDLE_TASKStack
                0x0000000020000acc      0x12c build/lab1/tpl_app_config.c.o
                0x0000000020000acc                IDLE_TASK_stack_zone

.Task_task2_SEC_VAR
                0x0000000020000bf8        0x8 load address 0x000000000800cae0
                0x0000000020000c00                . = ALIGN (__SEG_ALIGN_Task_task2_VAR_RGN)
 *fill*         0x0000000020000bf8        0x8 
                0x0000000020000c00                __SEG_START_Task_task2_VAR_RGN = .
 *(.Task_task2_SEC_VAR_NOINIT_32BIT)
 *(.Task_task2_SEC_VAR_FAST_32BIT)
 *(.Task_task2_SEC_VAR_32BIT)
 *(.Task_task2_SEC_VAR_NOINIT_16BIT)
 *(.Task_task2_SEC_VAR_FAST_16BIT)
 *(.Task_task2_SEC_VAR_16BIT)
 *(.Task_task2_SEC_VAR_NOINIT_8BIT)
 *(.Task_task2_SEC_VAR_FAST_8BIT)
 *(.Task_task2_SEC_VAR_8BIT)
 *(.Task_task2_SEC_VAR_NOINIT_BOOLEAN)
 *(.Task_task2_SEC_VAR_FAST_BOOLEAN)
 *(.Task_task2_SEC_VAR_BOOLEAN)
 *(.Task_task2_SEC_VAR_NOINIT_UNSPECIFIED)
 *(.Task_task2_SEC_VAR_FAST_UNSPECIFIED)
 *(.Task_task2_SEC_VAR_UNSPECIFIED)
                0x0000000020000c00                __SEG_END_Task_task2_VAR_RGN = .
                0x0000000020000c18                __SEG_SIZE_Task_task2_VAR_RGN = ((__SEG_END_Task_task2_VAR_RGN - __SEG_START_Task_task2_VAR_RGN) < 0x1000)?0x1000:__SEG_SIZE_Task_task2_VAR_RGN
                0x0000000020000c18                __SEG_SIZE_Task_task2_VAR_RGN = ((__SEG_END_Task_task2_VAR_RGN - __SEG_START_Task_task2_VAR_RGN) < 0x400)?0x400:__SEG_SIZE_Task_task2_VAR_RGN
                0x0000000020000c18                __SEG_SIZE_Task_task2_VAR_RGN = ((__SEG_END_Task_task2_VAR_RGN - __SEG_START_Task_task2_VAR_RGN) < 0x200)?0x200:__SEG_SIZE_Task_task2_VAR_RGN
                0x0000000020000c18                __SEG_SIZE_Task_task2_VAR_RGN = ((__SEG_END_Task_task2_VAR_RGN - __SEG_START_Task_task2_VAR_RGN) < 0x100)?0x100:__SEG_SIZE_Task_task2_VAR_RGN
                0x0000000020000c18                __SEG_SIZE_Task_task2_VAR_RGN = ((__SEG_END_Task_task2_VAR_RGN - __SEG_START_Task_task2_VAR_RGN) < 0x80)?0x80:__SEG_SIZE_Task_task2_VAR_RGN
                0x0000000020000c18                __SEG_SIZE_Task_task2_VAR_RGN = ((__SEG_END_Task_task2_VAR_RGN - __SEG_START_Task_task2_VAR_RGN) < 0x40)?0x40:__SEG_SIZE_Task_task2_VAR_RGN
                0x0000000020000c18                __SEG_SIZE_Task_task2_VAR_RGN = ((__SEG_END_Task_task2_VAR_RGN - __SEG_START_Task_task2_VAR_RGN) < 0x20)?0x20:__SEG_SIZE_Task_task2_VAR_RGN
                0x0000000020000c18                __SEG_ALIGN_Task_task2_VAR_RGN = __SEG_SIZE_Task_task2_VAR_RGN

.Task_task1_SEC_VAR
                0x0000000020000c00        0x0
                0x0000000020000c00                . = ALIGN (__SEG_ALIGN_Task_task1_VAR_RGN)
                0x0000000020000c00                __SEG_START_Task_task1_VAR_RGN = .
 *(.Task_task1_SEC_VAR_NOINIT_32BIT)
 *(.Task_task1_SEC_VAR_FAST_32BIT)
 *(.Task_task1_SEC_VAR_32BIT)
 *(.Task_task1_SEC_VAR_NOINIT_16BIT)
 *(.Task_task1_SEC_VAR_FAST_16BIT)
 *(.Task_task1_SEC_VAR_16BIT)
 *(.Task_task1_SEC_VAR_NOINIT_8BIT)
 *(.Task_task1_SEC_VAR_FAST_8BIT)
 *(.Task_task1_SEC_VAR_8BIT)
 *(.Task_task1_SEC_VAR_NOINIT_BOOLEAN)
 *(.Task_task1_SEC_VAR_FAST_BOOLEAN)
 *(.Task_task1_SEC_VAR_BOOLEAN)
 *(.Task_task1_SEC_VAR_NOINIT_UNSPECIFIED)
 *(.Task_task1_SEC_VAR_FAST_UNSPECIFIED)
 *(.Task_task1_SEC_VAR_UNSPECIFIED)
                0x0000000020000c00                __SEG_END_Task_task1_VAR_RGN = .
                0x0000000020000c20                __SEG_SIZE_Task_task1_VAR_RGN = ((__SEG_END_Task_task1_VAR_RGN - __SEG_START_Task_task1_VAR_RGN) < 0x1000)?0x1000:__SEG_SIZE_Task_task1_VAR_RGN
                0x0000000020000c20                __SEG_SIZE_Task_task1_VAR_RGN = ((__SEG_END_Task_task1_VAR_RGN - __SEG_START_Task_task1_VAR_RGN) < 0x400)?0x400:__SEG_SIZE_Task_task1_VAR_RGN
                0x0000000020000c20                __SEG_SIZE_Task_task1_VAR_RGN = ((__SEG_END_Task_task1_VAR_RGN - __SEG_START_Task_task1_VAR_RGN) < 0x200)?0x200:__SEG_SIZE_Task_task1_VAR_RGN
                0x0000000020000c20                __SEG_SIZE_Task_task1_VAR_RGN = ((__SEG_END_Task_task1_VAR_RGN - __SEG_START_Task_task1_VAR_RGN) < 0x100)?0x100:__SEG_SIZE_Task_task1_VAR_RGN
                0x0000000020000c20                __SEG_SIZE_Task_task1_VAR_RGN = ((__SEG_END_Task_task1_VAR_RGN - __SEG_START_Task_task1_VAR_RGN) < 0x80)?0x80:__SEG_SIZE_Task_task1_VAR_RGN
                0x0000000020000c20                __SEG_SIZE_Task_task1_VAR_RGN = ((__SEG_END_Task_task1_VAR_RGN - __SEG_START_Task_task1_VAR_RGN) < 0x40)?0x40:__SEG_SIZE_Task_task1_VAR_RGN
                0x0000000020000c20                __SEG_SIZE_Task_task1_VAR_RGN = ((__SEG_END_Task_task1_VAR_RGN - __SEG_START_Task_task1_VAR_RGN) < 0x20)?0x20:__SEG_SIZE_Task_task1_VAR_RGN
                0x0000000020000c20                __SEG_ALIGN_Task_task1_VAR_RGN = __SEG_SIZE_Task_task1_VAR_RGN

.Task_task3_SEC_VAR
                0x0000000020000c00        0x0
                0x0000000020000c00                . = ALIGN (__SEG_ALIGN_Task_task3_VAR_RGN)
                0x0000000020000c00                __SEG_START_Task_task3_VAR_RGN = .
 *(.Task_task3_SEC_VAR_NOINIT_32BIT)
 *(.Task_task3_SEC_VAR_FAST_32BIT)
 *(.Task_task3_SEC_VAR_32BIT)
 *(.Task_task3_SEC_VAR_NOINIT_16BIT)
 *(.Task_task3_SEC_VAR_FAST_16BIT)
 *(.Task_task3_SEC_VAR_16BIT)
 *(.Task_task3_SEC_VAR_NOINIT_8BIT)
 *(.Task_task3_SEC_VAR_FAST_8BIT)
 *(.Task_task3_SEC_VAR_8BIT)
 *(.Task_task3_SEC_VAR_NOINIT_BOOLEAN)
 *(.Task_task3_SEC_VAR_FAST_BOOLEAN)
 *(.Task_task3_SEC_VAR_BOOLEAN)
 *(.Task_task3_SEC_VAR_NOINIT_UNSPECIFIED)
 *(.Task_task3_SEC_VAR_FAST_UNSPECIFIED)
 *(.Task_task3_SEC_VAR_UNSPECIFIED)
                0x0000000020000c00                __SEG_END_Task_task3_VAR_RGN = .
                0x0000000020000c20                __SEG_SIZE_Task_task3_VAR_RGN = ((__SEG_END_Task_task3_VAR_RGN - __SEG_START_Task_task3_VAR_RGN) < 0x1000)?0x1000:__SEG_SIZE_Task_task3_VAR_RGN
                0x0000000020000c20                __SEG_SIZE_Task_task3_VAR_RGN = ((__SEG_END_Task_task3_VAR_RGN - __SEG_START_Task_task3_VAR_RGN) < 0x400)?0x400:__SEG_SIZE_Task_task3_VAR_RGN
                0x0000000020000c20                __SEG_SIZE_Task_task3_VAR_RGN = ((__SEG_END_Task_task3_VAR_RGN - __SEG_START_Task_task3_VAR_RGN) < 0x200)?0x200:__SEG_SIZE_Task_task3_VAR_RGN
                0x0000000020000c20                __SEG_SIZE_Task_task3_VAR_RGN = ((__SEG_END_Task_task3_VAR_RGN - __SEG_START_Task_task3_VAR_RGN) < 0x100)?0x100:__SEG_SIZE_Task_task3_VAR_RGN
                0x0000000020000c20                __SEG_SIZE_Task_task3_VAR_RGN = ((__SEG_END_Task_task3_VAR_RGN - __SEG_START_Task_task3_VAR_RGN) < 0x80)?0x80:__SEG_SIZE_Task_task3_VAR_RGN
                0x0000000020000c20                __SEG_SIZE_Task_task3_VAR_RGN = ((__SEG_END_Task_task3_VAR_RGN - __SEG_START_Task_task3_VAR_RGN) < 0x40)?0x40:__SEG_SIZE_Task_task3_VAR_RGN
                0x0000000020000c20                __SEG_SIZE_Task_task3_VAR_RGN = ((__SEG_END_Task_task3_VAR_RGN - __SEG_START_Task_task3_VAR_RGN) < 0x20)?0x20:__SEG_SIZE_Task_task3_VAR_RGN
                0x0000000020000c20                __SEG_ALIGN_Task_task3_VAR_RGN = __SEG_SIZE_Task_task3_VAR_RGN

.Task_task2_SEC_STACK
                0x0000000020000c00      0x12c load address 0x000000000800cae8
                0x0000000020000c00                . = ALIGN (__SEG_ALIGN_Task_task2_STACK_RGN)
                0x0000000020000c00                __SEG_START_Task_task2_STACK_RGN = .
 *(.Task_task2Stack)
 .Task_task2Stack
                0x0000000020000c00      0x12c build/lab1/tpl_app_config.c.o
                0x0000000020000c00                task2_stack_zone
                0x0000000020000d2c                . = ALIGN (0x4)
                0x0000000020000d2c                __SEG_END_Task_task2_STACK_RGN = .
                0x0000000020000e00                __SEG_SIZE_Task_task2_STACK_RGN = ((__SEG_END_Task_task2_STACK_RGN - __SEG_START_Task_task2_STACK_RGN) < 0x1000)?0x1000:__SEG_SIZE_Task_task2_STACK_RGN
                0x0000000020000e00                __SEG_SIZE_Task_task2_STACK_RGN = ((__SEG_END_Task_task2_STACK_RGN - __SEG_START_Task_task2_STACK_RGN) < 0x400)?0x400:__SEG_SIZE_Task_task2_STACK_RGN
                0x0000000020000e00                __SEG_SIZE_Task_task2_STACK_RGN = ((__SEG_END_Task_task2_STACK_RGN - __SEG_START_Task_task2_STACK_RGN) < 0x200)?0x200:__SEG_SIZE_Task_task2_STACK_RGN
                [0x0000000020000e00]                __SEG_SIZE_Task_task2_STACK_RGN = ((__SEG_END_Task_task2_STACK_RGN - __SEG_START_Task_task2_STACK_RGN) < 0x100)?0x100:__SEG_SIZE_Task_task2_STACK_RGN
                [0x0000000020000e00]                __SEG_SIZE_Task_task2_STACK_RGN = ((__SEG_END_Task_task2_STACK_RGN - __SEG_START_Task_task2_STACK_RGN) < 0x80)?0x80:__SEG_SIZE_Task_task2_STACK_RGN
                [0x0000000020000e00]                __SEG_SIZE_Task_task2_STACK_RGN = ((__SEG_END_Task_task2_STACK_RGN - __SEG_START_Task_task2_STACK_RGN) < 0x40)?0x40:__SEG_SIZE_Task_task2_STACK_RGN
                [0x0000000020000e00]                __SEG_SIZE_Task_task2_STACK_RGN = ((__SEG_END_Task_task2_STACK_RGN - __SEG_START_Task_task2_STACK_RGN) < 0x20)?0x20:__SEG_SIZE_Task_task2_STACK_RGN
                0x0000000020000e00                __SEG_ALIGN_Task_task2_STACK_RGN = __SEG_SIZE_Task_task2_STACK_RGN

.Task_task1_SEC_STACK
                0x0000000020000d2c      0x200 load address 0x000000000800cc14
                0x0000000020000e00                . = ALIGN (__SEG_ALIGN_Task_task1_STACK_RGN)
 *fill*         0x0000000020000d2c       0xd4 
                0x0000000020000e00                __SEG_START_Task_task1_STACK_RGN = .
 *(.Task_task1Stack)
 .Task_task1Stack
                0x0000000020000e00      0x12c build/lab1/tpl_app_config.c.o
                0x0000000020000e00                task1_stack_zone
                0x0000000020000f2c                . = ALIGN (0x4)
                0x0000000020000f2c                __SEG_END_Task_task1_STACK_RGN = .
                0x0000000020000f2c                __SEG_SIZE_Task_task1_STACK_RGN = ((__SEG_END_Task_task1_STACK_RGN - __SEG_START_Task_task1_STACK_RGN) < 0x1000)?0x1000:__SEG_SIZE_Task_task1_STACK_RGN
                0x0000000020000f2c                __SEG_SIZE_Task_task1_STACK_RGN = ((__SEG_END_Task_task1_STACK_RGN - __SEG_START_Task_task1_STACK_RGN) < 0x400)?0x400:__SEG_SIZE_Task_task1_STACK_RGN
                0x0000000020000f2c                __SEG_SIZE_Task_task1_STACK_RGN = ((__SEG_END_Task_task1_STACK_RGN - __SEG_START_Task_task1_STACK_RGN) < 0x200)?0x200:__SEG_SIZE_Task_task1_STACK_RGN
                [0x0000000020000f2c]                __SEG_SIZE_Task_task1_STACK_RGN = ((__SEG_END_Task_task1_STACK_RGN - __SEG_START_Task_task1_STACK_RGN) < 0x100)?0x100:__SEG_SIZE_Task_task1_STACK_RGN
                [0x0000000020000f2c]                __SEG_SIZE_Task_task1_STACK_RGN = ((__SEG_END_Task_task1_STACK_RGN - __SEG_START_Task_task1_STACK_RGN) < 0x80)?0x80:__SEG_SIZE_Task_task1_STACK_RGN
                [0x0000000020000f2c]                __SEG_SIZE_Task_task1_STACK_RGN = ((__SEG_END_Task_task1_STACK_RGN - __SEG_START_Task_task1_STACK_RGN) < 0x40)?0x40:__SEG_SIZE_Task_task1_STACK_RGN
                [0x0000000020000f2c]                __SEG_SIZE_Task_task1_STACK_RGN = ((__SEG_END_Task_task1_STACK_RGN - __SEG_START_Task_task1_STACK_RGN) < 0x20)?0x20:__SEG_SIZE_Task_task1_STACK_RGN
                0x0000000020000f2c                __SEG_ALIGN_Task_task1_STACK_RGN = __SEG_SIZE_Task_task1_STACK_RGN

.Task_task3_SEC_STACK
                0x0000000020000f2c      0x200 load address 0x000000000800ce14
                0x0000000020001000                . = ALIGN (__SEG_ALIGN_Task_task3_STACK_RGN)
 *fill*         0x0000000020000f2c       0xd4 
                0x0000000020001000                __SEG_START_Task_task3_STACK_RGN = .
 *(.Task_task3Stack)
 .Task_task3Stack
                0x0000000020001000      0x12c build/lab1/tpl_app_config.c.o
                0x0000000020001000                task3_stack_zone
                0x000000002000112c                . = ALIGN (0x4)
                0x000000002000112c                __SEG_END_Task_task3_STACK_RGN = .
                0x000000002000112c                __SEG_SIZE_Task_task3_STACK_RGN = ((__SEG_END_Task_task3_STACK_RGN - __SEG_START_Task_task3_STACK_RGN) < 0x1000)?0x1000:__SEG_SIZE_Task_task3_STACK_RGN
                0x000000002000112c                __SEG_SIZE_Task_task3_STACK_RGN = ((__SEG_END_Task_task3_STACK_RGN - __SEG_START_Task_task3_STACK_RGN) < 0x400)?0x400:__SEG_SIZE_Task_task3_STACK_RGN
                0x000000002000112c                __SEG_SIZE_Task_task3_STACK_RGN = ((__SEG_END_Task_task3_STACK_RGN - __SEG_START_Task_task3_STACK_RGN) < 0x200)?0x200:__SEG_SIZE_Task_task3_STACK_RGN
                [0x000000002000112c]                __SEG_SIZE_Task_task3_STACK_RGN = ((__SEG_END_Task_task3_STACK_RGN - __SEG_START_Task_task3_STACK_RGN) < 0x100)?0x100:__SEG_SIZE_Task_task3_STACK_RGN
                [0x000000002000112c]                __SEG_SIZE_Task_task3_STACK_RGN = ((__SEG_END_Task_task3_STACK_RGN - __SEG_START_Task_task3_STACK_RGN) < 0x80)?0x80:__SEG_SIZE_Task_task3_STACK_RGN
                [0x000000002000112c]                __SEG_SIZE_Task_task3_STACK_RGN = ((__SEG_END_Task_task3_STACK_RGN - __SEG_START_Task_task3_STACK_RGN) < 0x40)?0x40:__SEG_SIZE_Task_task3_STACK_RGN
                [0x000000002000112c]                __SEG_SIZE_Task_task3_STACK_RGN = ((__SEG_END_Task_task3_STACK_RGN - __SEG_START_Task_task3_STACK_RGN) < 0x20)?0x20:__SEG_SIZE_Task_task3_STACK_RGN
                0x000000002000112c                __SEG_ALIGN_Task_task3_STACK_RGN = __SEG_SIZE_Task_task3_STACK_RGN

appvars
                0x000000002000112c                . = ALIGN (0x4)

.bss            0x000000002000112c       0xc8 load address 0x000000000800d014
                0x000000002000112c                _sbss = .
                0x000000002000112c                __bss_start__ = _sbss
 *(.bss)
 *(.bss*)
 .bss.ioExt     0x000000002000112c       0x54 build/machines/cortex/armv7em/stm32f303/coroLabBoard/mcp23s17.cpp.o
                0x000000002000112c                ioExt
 .bss.Tft       0x0000000020001180       0x30 build/machines/cortex/armv7em/stm32f303/coroLabBoard/tft/tft.cpp.o
                0x0000000020001180                Tft
 .bss.__malloc_current_mallinfo
                0x00000000200011b0       0x28 /opt/gcc-arm-none-eabi-10.3-2021.07/bin/../lib/gcc/arm-none-eabi/10.3.1/../../../../arm-none-eabi/lib/thumb/v7e-m/nofp/libc.a(lib_a-mallocr.o)
                0x00000000200011b0                __malloc_current_mallinfo
 .bss.__malloc_max_sbrked_mem
                0x00000000200011d8        0x4 /opt/gcc-arm-none-eabi-10.3-2021.07/bin/../lib/gcc/arm-none-eabi/10.3.1/../../../../arm-none-eabi/lib/thumb/v7e-m/nofp/libc.a(lib_a-mallocr.o)
                0x00000000200011d8                __malloc_max_sbrked_mem
 .bss.__malloc_max_total_mem
                0x00000000200011dc        0x4 /opt/gcc-arm-none-eabi-10.3-2021.07/bin/../lib/gcc/arm-none-eabi/10.3.1/../../../../arm-none-eabi/lib/thumb/v7e-m/nofp/libc.a(lib_a-mallocr.o)
                0x00000000200011dc                __malloc_max_total_mem
 .bss.__malloc_top_pad
                0x00000000200011e0        0x4 /opt/gcc-arm-none-eabi-10.3-2021.07/bin/../lib/gcc/arm-none-eabi/10.3.1/../../../../arm-none-eabi/lib/thumb/v7e-m/nofp/libc.a(lib_a-mallocr.o)
                0x00000000200011e0                __malloc_top_pad
 .bss.__lock___malloc_recursive_mutex
                0x00000000200011e4        0x1 /opt/gcc-arm-none-eabi-10.3-2021.07/bin/../lib/gcc/arm-none-eabi/10.3.1/../../../../arm-none-eabi/lib/thumb/v7e-m/nofp/libc.a(lib_a-lock.o)
                0x00000000200011e4                __lock___malloc_recursive_mutex
 *fill*         0x00000000200011e5        0x3 
 .bss.__lock___sfp_recursive_mutex
                0x00000000200011e8        0x1 /opt/gcc-arm-none-eabi-10.3-2021.07/bin/../lib/gcc/arm-none-eabi/10.3.1/../../../../arm-none-eabi/lib/thumb/v7e-m/nofp/libc.a(lib_a-lock.o)
                0x00000000200011e8                __lock___sfp_recursive_mutex
 *fill*         0x00000000200011e9        0x3 
 .bss.__lock___sinit_recursive_mutex
                0x00000000200011ec        0x1 /opt/gcc-arm-none-eabi-10.3-2021.07/bin/../lib/gcc/arm-none-eabi/10.3.1/../../../../arm-none-eabi/lib/thumb/v7e-m/nofp/libc.a(lib_a-lock.o)
                0x00000000200011ec                __lock___sinit_recursive_mutex
 *fill*         0x00000000200011ed        0x3 
 .bss.errno     0x00000000200011f0        0x4 /opt/gcc-arm-none-eabi-10.3-2021.07/bin/../lib/gcc/arm-none-eabi/10.3.1/../../../../arm-none-eabi/lib/thumb/v7e-m/nofp/libc.a(lib_a-reent.o)
                0x00000000200011f0                errno
 *(COMMON)
                0x00000000200011f4                . = ALIGN (0x4)
                0x00000000200011f4                _ebss = .
                0x00000000200011f4                __bss_end__ = _ebss

._user_heap_stack
                0x00000000200011f4      0x400 load address 0x000000000800d0dc
                0x00000000200011f4                . = ALIGN (0x4)
                0x00000000200011f4                __heap_start__ = .
                [!provide]                        PROVIDE (end = .)
                [!provide]                        PROVIDE (_end = .)
                0x00000000200011f4                . = (. + _Min_Heap_Size)
                0x00000000200015f4                . = (. + _Min_Stack_Size)
 *fill*         0x00000000200011f4      0x400 
                0x00000000200015f4                . = ALIGN (0x4)

.memory_b1_text
 *(.mb1text)
 *(.mb1text*)
 *(.mb1rodata)
 *(.mb1rodata*)

/DISCARD/
 libc.a(*)
 libm.a(*)
 libgcc.a(*)

.ARM.attributes
                0x0000000000000000       0x30
 *(.ARM.attributes)
 .ARM.attributes
                0x0000000000000000       0x2e build/os/tpl_os_kernel.c.o
 .ARM.attributes
                0x000000000000002e       0x2e build/os/tpl_os_timeobj_kernel.c.o
 .ARM.attributes
                0x000000000000005c       0x2e build/os/tpl_os_os_kernel.c.o
 .ARM.attributes
                0x000000000000008a       0x2e build/os/tpl_os_os.c.o
 .ARM.attributes
                0x00000000000000b8       0x2e build/os/tpl_os_interrupt_kernel.c.o
 .ARM.attributes
                0x00000000000000e6       0x2e build/os/tpl_os_task_kernel.c.o
 .ARM.attributes
                0x0000000000000114       0x2e build/os/tpl_os_resource_kernel.c.o
 .ARM.attributes
                0x0000000000000142       0x2e build/lab1/tpl_app_config.c.o
 .ARM.attributes
                0x0000000000000170       0x37 build/lab1/tpl_dispatch_table.c.o
 .ARM.attributes
                0x00000000000001a7       0x20 build/lab1/tpl_invoque.S.o
 .ARM.attributes
                0x00000000000001c7       0x20 build/lab1/tpl_primary_irq.S.o
 .ARM.attributes
                0x00000000000001e7       0x37 build/lab1/tpl_vectors.c.o
 .ARM.attributes
                0x000000000000021e       0x2e build/lab1/tpl_external_interrupts.c.o
 .ARM.attributes
                0x000000000000024c       0x2e build/lab1/tpl_app_interrupts.c.o
 .ARM.attributes
                0x000000000000027a       0x2e build/machines/cortex/tpl_machine_cortex.c.o
 .ARM.attributes
                0x00000000000002a8       0x20 build/machines/cortex/tpl_sc_handler.S.o
 .ARM.attributes
                0x00000000000002c8       0x20 build/machines/cortex/tpl_startup.S.o
 .ARM.attributes
                0x00000000000002e8       0x20 build/machines/cortex/armv7em/tpl_ctx_switch.S.o
 .ARM.attributes
                0x0000000000000308       0x20 build/machines/cortex/armv7em/tpl_ctx_switch_under_it.S.o
 .ARM.attributes
                0x0000000000000328       0x20 build/machines/cortex/armv7em/tpl_interrupts.S.o
 .ARM.attributes
                0x0000000000000348       0x2e build/machines/cortex/armv7em/stm32f303/handlers_stm32f3xx.c.o
 .ARM.attributes
                0x0000000000000376       0x2e build/machines/cortex/armv7em/stm32f303/startup_stm32f3xx.c.o
 .ARM.attributes
                0x00000000000003a4       0x2e build/machines/cortex/armv7em/stm32f303/system_stm32f30x.c.o
 .ARM.attributes
                0x00000000000003d2       0x2e build/machines/cortex/armv7em/stm32f303/tpl_machine_stm32f303.c.o
 .ARM.attributes
                0x0000000000000400       0x2e build/machines/cortex/armv7em/stm32f303/lib/pinAccess.c.o
 .ARM.attributes
                0x000000000000042e       0x2e build/machines/cortex/armv7em/stm32f303/coroLabBoard/spi.c.o
 .ARM.attributes
                0x000000000000045c       0x2e build/lab1.cpp.o
 .ARM.attributes
                0x000000000000048a       0x2e build/machines/cortex/armv7em/stm32f303/coroLabBoard/mcp23s17.cpp.o
 .ARM.attributes
                0x00000000000004b8       0x2e build/machines/cortex/armv7em/stm32f303/coroLabBoard/coroBoard.cpp.o
 .ARM.attributes
                0x00000000000004e6       0x2e build/machines/cortex/armv7em/stm32f303/coroLabBoard/tft/arduinoCore/Print.cpp.o
 .ARM.attributes
                0x0000000000000514       0x2e build/machines/cortex/armv7em/stm32f303/coroLabBoard/tft/tft.cpp.o
 .ARM.attributes
                0x0000000000000542       0x2e build/machines/cortex/armv7em/stm32f303/coroLabBoard/tft/Adafruit-ST7735-Library/Adafruit_ST7735.cpp.o
 .ARM.attributes
                0x0000000000000570       0x2e build/machines/cortex/armv7em/stm32f303/coroLabBoard/tft/Adafruit-ST7735-Library/Adafruit_ST77xx.cpp.o
 .ARM.attributes
                0x000000000000059e       0x2e build/machines/cortex/armv7em/stm32f303/coroLabBoard/tft/Adafruit-GFX-Library/Adafruit_GFX.cpp.o
 .ARM.attributes
                0x00000000000005cc       0x2e build/machines/cortex/armv7em/stm32f303/coroLabBoard/tft/Adafruit-GFX-Library/Adafruit_SPITFT.cpp.o
LOAD /opt/gcc-arm-none-eabi-10.3-2021.07/bin/../lib/gcc/arm-none-eabi/10.3.1/../../../../arm-none-eabi/lib/thumb/v7e-m/nofp/libc.a
LOAD /opt/gcc-arm-none-eabi-10.3-2021.07/bin/../lib/gcc/arm-none-eabi/10.3.1/thumb/v7e-m/nofp/libgcc.a
OUTPUT(lab1.elf elf32-littlearm)
LOAD linker stubs
LOAD /opt/gcc-arm-none-eabi-10.3-2021.07/bin/../lib/gcc/arm-none-eabi/10.3.1/../../../../arm-none-eabi/lib/thumb/v7e-m/nofp/libc.a
LOAD /opt/gcc-arm-none-eabi-10.3-2021.07/bin/../lib/gcc/arm-none-eabi/10.3.1/../../../../arm-none-eabi/lib/thumb/v7e-m/nofp/libm.a
LOAD /opt/gcc-arm-none-eabi-10.3-2021.07/bin/../lib/gcc/arm-none-eabi/10.3.1/thumb/v7e-m/nofp/libgcc.a

.debug_info     0x0000000000000000    0x134cb
 .debug_info    0x0000000000000000      0xb36 build/os/tpl_os_kernel.c.o
 .debug_info    0x0000000000000b36      0x3d9 build/os/tpl_os_timeobj_kernel.c.o
 .debug_info    0x0000000000000f0f      0x17a build/os/tpl_os_os_kernel.c.o
 .debug_info    0x0000000000001089       0xb7 build/os/tpl_os_os.c.o
 .debug_info    0x0000000000001140      0x52c build/os/tpl_os_interrupt_kernel.c.o
 .debug_info    0x000000000000166c      0x580 build/os/tpl_os_task_kernel.c.o
 .debug_info    0x0000000000001bec      0x5b0 build/os/tpl_os_resource_kernel.c.o
 .debug_info    0x000000000000219c      0x9dd build/lab1/tpl_app_config.c.o
 .debug_info    0x0000000000002b79       0xab build/lab1/tpl_dispatch_table.c.o
 .debug_info    0x0000000000002c24       0x26 build/lab1/tpl_invoque.S.o
 .debug_info    0x0000000000002c4a       0x26 build/lab1/tpl_primary_irq.S.o
 .debug_info    0x0000000000002c70       0xc0 build/lab1/tpl_vectors.c.o
 .debug_info    0x0000000000002d30      0x168 build/lab1/tpl_external_interrupts.c.o
 .debug_info    0x0000000000002e98       0xa2 build/lab1/tpl_app_interrupts.c.o
 .debug_info    0x0000000000002f3a      0x93a build/machines/cortex/tpl_machine_cortex.c.o
 .debug_info    0x0000000000003874       0x26 build/machines/cortex/tpl_sc_handler.S.o
 .debug_info    0x000000000000389a       0x26 build/machines/cortex/tpl_startup.S.o
 .debug_info    0x00000000000038c0       0x26 build/machines/cortex/armv7em/tpl_ctx_switch.S.o
 .debug_info    0x00000000000038e6       0x26 build/machines/cortex/armv7em/tpl_ctx_switch_under_it.S.o
 .debug_info    0x000000000000390c       0x26 build/machines/cortex/armv7em/tpl_interrupts.S.o
 .debug_info    0x0000000000003932      0x357 build/machines/cortex/armv7em/stm32f303/handlers_stm32f3xx.c.o
 .debug_info    0x0000000000003c89      0x39b build/machines/cortex/armv7em/stm32f303/startup_stm32f3xx.c.o
 .debug_info    0x0000000000004024      0x301 build/machines/cortex/armv7em/stm32f303/system_stm32f30x.c.o
 .debug_info    0x0000000000004325      0x5cd build/machines/cortex/armv7em/stm32f303/tpl_machine_stm32f303.c.o
 .debug_info    0x00000000000048f2      0x4cf build/machines/cortex/armv7em/stm32f303/lib/pinAccess.c.o
 .debug_info    0x0000000000004dc1      0x381 build/machines/cortex/armv7em/stm32f303/coroLabBoard/spi.c.o
 .debug_info    0x0000000000005142      0x4d8 build/lab1.cpp.o
 .debug_info    0x000000000000561a      0xc09 build/machines/cortex/armv7em/stm32f303/coroLabBoard/mcp23s17.cpp.o
 .debug_info    0x0000000000006223     0x1174 build/machines/cortex/armv7em/stm32f303/coroLabBoard/coroBoard.cpp.o
 .debug_info    0x0000000000007397     0x3f35 build/machines/cortex/armv7em/stm32f303/coroLabBoard/tft/arduinoCore/Print.cpp.o
 .debug_info    0x000000000000b2cc      0xe9f build/machines/cortex/armv7em/stm32f303/coroLabBoard/tft/tft.cpp.o
 .debug_info    0x000000000000c16b      0xb94 build/machines/cortex/armv7em/stm32f303/coroLabBoard/tft/Adafruit-ST7735-Library/Adafruit_ST7735.cpp.o
 .debug_info    0x000000000000ccff      0xe43 build/machines/cortex/armv7em/stm32f303/coroLabBoard/tft/Adafruit-ST7735-Library/Adafruit_ST77xx.cpp.o
 .debug_info    0x000000000000db42     0x428d build/machines/cortex/armv7em/stm32f303/coroLabBoard/tft/Adafruit-GFX-Library/Adafruit_GFX.cpp.o
 .debug_info    0x0000000000011dcf     0x16fc build/machines/cortex/armv7em/stm32f303/coroLabBoard/tft/Adafruit-GFX-Library/Adafruit_SPITFT.cpp.o

.debug_abbrev   0x0000000000000000     0x3824
 .debug_abbrev  0x0000000000000000      0x27a build/os/tpl_os_kernel.c.o
 .debug_abbrev  0x000000000000027a      0x136 build/os/tpl_os_timeobj_kernel.c.o
 .debug_abbrev  0x00000000000003b0       0x9a build/os/tpl_os_os_kernel.c.o
 .debug_abbrev  0x000000000000044a       0x6b build/os/tpl_os_os.c.o
 .debug_abbrev  0x00000000000004b5      0x199 build/os/tpl_os_interrupt_kernel.c.o
 .debug_abbrev  0x000000000000064e      0x18f build/os/tpl_os_task_kernel.c.o
 .debug_abbrev  0x00000000000007dd      0x176 build/os/tpl_os_resource_kernel.c.o
 .debug_abbrev  0x0000000000000953      0x1b1 build/lab1/tpl_app_config.c.o
 .debug_abbrev  0x0000000000000b04       0x80 build/lab1/tpl_dispatch_table.c.o
 .debug_abbrev  0x0000000000000b84       0x14 build/lab1/tpl_invoque.S.o
 .debug_abbrev  0x0000000000000b98       0x14 build/lab1/tpl_primary_irq.S.o
 .debug_abbrev  0x0000000000000bac       0x92 build/lab1/tpl_vectors.c.o
 .debug_abbrev  0x0000000000000c3e       0x98 build/lab1/tpl_external_interrupts.c.o
 .debug_abbrev  0x0000000000000cd6       0x44 build/lab1/tpl_app_interrupts.c.o
 .debug_abbrev  0x0000000000000d1a      0x2e3 build/machines/cortex/tpl_machine_cortex.c.o
 .debug_abbrev  0x0000000000000ffd       0x14 build/machines/cortex/tpl_sc_handler.S.o
 .debug_abbrev  0x0000000000001011       0x14 build/machines/cortex/tpl_startup.S.o
 .debug_abbrev  0x0000000000001025       0x14 build/machines/cortex/armv7em/tpl_ctx_switch.S.o
 .debug_abbrev  0x0000000000001039       0x14 build/machines/cortex/armv7em/tpl_ctx_switch_under_it.S.o
 .debug_abbrev  0x000000000000104d       0x14 build/machines/cortex/armv7em/tpl_interrupts.S.o
 .debug_abbrev  0x0000000000001061       0xe0 build/machines/cortex/armv7em/stm32f303/handlers_stm32f3xx.c.o
 .debug_abbrev  0x0000000000001141      0x1c2 build/machines/cortex/armv7em/stm32f303/startup_stm32f3xx.c.o
 .debug_abbrev  0x0000000000001303      0x127 build/machines/cortex/armv7em/stm32f303/system_stm32f30x.c.o
 .debug_abbrev  0x000000000000142a      0x179 build/machines/cortex/armv7em/stm32f303/tpl_machine_stm32f303.c.o
 .debug_abbrev  0x00000000000015a3      0x1a6 build/machines/cortex/armv7em/stm32f303/lib/pinAccess.c.o
 .debug_abbrev  0x0000000000001749      0x15d build/machines/cortex/armv7em/stm32f303/coroLabBoard/spi.c.o
 .debug_abbrev  0x00000000000018a6      0x19f build/lab1.cpp.o
 .debug_abbrev  0x0000000000001a45      0x2fa build/machines/cortex/armv7em/stm32f303/coroLabBoard/mcp23s17.cpp.o
 .debug_abbrev  0x0000000000001d3f      0x3eb build/machines/cortex/armv7em/stm32f303/coroLabBoard/coroBoard.cpp.o
 .debug_abbrev  0x000000000000212a      0x3da build/machines/cortex/armv7em/stm32f303/coroLabBoard/tft/arduinoCore/Print.cpp.o
 .debug_abbrev  0x0000000000002504      0x3e2 build/machines/cortex/armv7em/stm32f303/coroLabBoard/tft/tft.cpp.o
 .debug_abbrev  0x00000000000028e6      0x2c7 build/machines/cortex/armv7em/stm32f303/coroLabBoard/tft/Adafruit-ST7735-Library/Adafruit_ST7735.cpp.o
 .debug_abbrev  0x0000000000002bad      0x344 build/machines/cortex/armv7em/stm32f303/coroLabBoard/tft/Adafruit-ST7735-Library/Adafruit_ST77xx.cpp.o
 .debug_abbrev  0x0000000000002ef1      0x504 build/machines/cortex/armv7em/stm32f303/coroLabBoard/tft/Adafruit-GFX-Library/Adafruit_GFX.cpp.o
 .debug_abbrev  0x00000000000033f5      0x42f build/machines/cortex/armv7em/stm32f303/coroLabBoard/tft/Adafruit-GFX-Library/Adafruit_SPITFT.cpp.o

.debug_aranges  0x0000000000000000      0xc28
 .debug_aranges
                0x0000000000000000       0xd8 build/os/tpl_os_kernel.c.o
 .debug_aranges
                0x00000000000000d8       0x40 build/os/tpl_os_timeobj_kernel.c.o
 .debug_aranges
                0x0000000000000118       0x38 build/os/tpl_os_os_kernel.c.o
 .debug_aranges
                0x0000000000000150       0x20 build/os/tpl_os_os.c.o
 .debug_aranges
                0x0000000000000170       0x68 build/os/tpl_os_interrupt_kernel.c.o
 .debug_aranges
                0x00000000000001d8       0x48 build/os/tpl_os_task_kernel.c.o
 .debug_aranges
                0x0000000000000220       0x30 build/os/tpl_os_resource_kernel.c.o
 .debug_aranges
                0x0000000000000250       0x28 build/lab1/tpl_app_config.c.o
 .debug_aranges
                0x0000000000000278       0x18 build/lab1/tpl_dispatch_table.c.o
 .debug_aranges
                0x0000000000000290       0x20 build/lab1/tpl_invoque.S.o
 .debug_aranges
                0x00000000000002b0       0x20 build/lab1/tpl_primary_irq.S.o
 .debug_aranges
                0x00000000000002d0       0x18 build/lab1/tpl_vectors.c.o
 .debug_aranges
                0x00000000000002e8       0x20 build/lab1/tpl_external_interrupts.c.o
 .debug_aranges
                0x0000000000000308       0x30 build/lab1/tpl_app_interrupts.c.o
 .debug_aranges
                0x0000000000000338       0x58 build/machines/cortex/tpl_machine_cortex.c.o
 .debug_aranges
                0x0000000000000390       0x20 build/machines/cortex/tpl_sc_handler.S.o
 .debug_aranges
                0x00000000000003b0       0x20 build/machines/cortex/tpl_startup.S.o
 .debug_aranges
                0x00000000000003d0       0x20 build/machines/cortex/armv7em/tpl_ctx_switch.S.o
 .debug_aranges
                0x00000000000003f0       0x20 build/machines/cortex/armv7em/tpl_ctx_switch_under_it.S.o
 .debug_aranges
                0x0000000000000410       0x20 build/machines/cortex/armv7em/tpl_interrupts.S.o
 .debug_aranges
                0x0000000000000430       0x58 build/machines/cortex/armv7em/stm32f303/handlers_stm32f3xx.c.o
 .debug_aranges
                0x0000000000000488       0x48 build/machines/cortex/armv7em/stm32f303/startup_stm32f3xx.c.o
 .debug_aranges
                0x00000000000004d0       0x28 build/machines/cortex/armv7em/stm32f303/system_stm32f30x.c.o
 .debug_aranges
                0x00000000000004f8       0x30 build/machines/cortex/armv7em/stm32f303/tpl_machine_stm32f303.c.o
 .debug_aranges
                0x0000000000000528       0x50 build/machines/cortex/armv7em/stm32f303/lib/pinAccess.c.o
 .debug_aranges
                0x0000000000000578       0x40 build/machines/cortex/armv7em/stm32f303/coroLabBoard/spi.c.o
 .debug_aranges
                0x00000000000005b8       0x38 build/lab1.cpp.o
 .debug_aranges
                0x00000000000005f0       0xb0 build/machines/cortex/armv7em/stm32f303/coroLabBoard/mcp23s17.cpp.o
 .debug_aranges
                0x00000000000006a0       0x40 build/machines/cortex/armv7em/stm32f303/coroLabBoard/coroBoard.cpp.o
 .debug_aranges
                0x00000000000006e0      0x108 build/machines/cortex/armv7em/stm32f303/coroLabBoard/tft/arduinoCore/Print.cpp.o
 .debug_aranges
                0x00000000000007e8       0x68 build/machines/cortex/armv7em/stm32f303/coroLabBoard/tft/tft.cpp.o
 .debug_aranges
                0x0000000000000850       0x30 build/machines/cortex/armv7em/stm32f303/coroLabBoard/tft/Adafruit-ST7735-Library/Adafruit_ST7735.cpp.o
 .debug_aranges
                0x0000000000000880       0x50 build/machines/cortex/armv7em/stm32f303/coroLabBoard/tft/Adafruit-ST7735-Library/Adafruit_ST77xx.cpp.o
 .debug_aranges
                0x00000000000008d0      0x290 build/machines/cortex/armv7em/stm32f303/coroLabBoard/tft/Adafruit-GFX-Library/Adafruit_GFX.cpp.o
 .debug_aranges
                0x0000000000000b60       0xc8 build/machines/cortex/armv7em/stm32f303/coroLabBoard/tft/Adafruit-GFX-Library/Adafruit_SPITFT.cpp.o

.debug_ranges   0x0000000000000000      0xa28
 .debug_ranges  0x0000000000000000       0xe0 build/os/tpl_os_kernel.c.o
 .debug_ranges  0x00000000000000e0       0x30 build/os/tpl_os_timeobj_kernel.c.o
 .debug_ranges  0x0000000000000110       0x28 build/os/tpl_os_os_kernel.c.o
 .debug_ranges  0x0000000000000138       0x10 build/os/tpl_os_os.c.o
 .debug_ranges  0x0000000000000148       0x58 build/os/tpl_os_interrupt_kernel.c.o
 .debug_ranges  0x00000000000001a0       0x38 build/os/tpl_os_task_kernel.c.o
 .debug_ranges  0x00000000000001d8       0x20 build/os/tpl_os_resource_kernel.c.o
 .debug_ranges  0x00000000000001f8       0x18 build/lab1/tpl_app_config.c.o
 .debug_ranges  0x0000000000000210       0x10 build/lab1/tpl_external_interrupts.c.o
 .debug_ranges  0x0000000000000220       0x20 build/lab1/tpl_app_interrupts.c.o
 .debug_ranges  0x0000000000000240       0x48 build/machines/cortex/tpl_machine_cortex.c.o
 .debug_ranges  0x0000000000000288       0x48 build/machines/cortex/armv7em/stm32f303/handlers_stm32f3xx.c.o
 .debug_ranges  0x00000000000002d0       0x70 build/machines/cortex/armv7em/stm32f303/startup_stm32f3xx.c.o
 .debug_ranges  0x0000000000000340       0x18 build/machines/cortex/armv7em/stm32f303/system_stm32f30x.c.o
 .debug_ranges  0x0000000000000358       0x20 build/machines/cortex/armv7em/stm32f303/tpl_machine_stm32f303.c.o
 .debug_ranges  0x0000000000000378       0x58 build/machines/cortex/armv7em/stm32f303/lib/pinAccess.c.o
 .debug_ranges  0x00000000000003d0       0x30 build/machines/cortex/armv7em/stm32f303/coroLabBoard/spi.c.o
 .debug_ranges  0x0000000000000400       0x28 build/lab1.cpp.o
 .debug_ranges  0x0000000000000428       0xa0 build/machines/cortex/armv7em/stm32f303/coroLabBoard/mcp23s17.cpp.o
 .debug_ranges  0x00000000000004c8       0x30 build/machines/cortex/armv7em/stm32f303/coroLabBoard/coroBoard.cpp.o
 .debug_ranges  0x00000000000004f8       0xf8 build/machines/cortex/armv7em/stm32f303/coroLabBoard/tft/arduinoCore/Print.cpp.o
 .debug_ranges  0x00000000000005f0       0x58 build/machines/cortex/armv7em/stm32f303/coroLabBoard/tft/tft.cpp.o
 .debug_ranges  0x0000000000000648       0x20 build/machines/cortex/armv7em/stm32f303/coroLabBoard/tft/Adafruit-ST7735-Library/Adafruit_ST7735.cpp.o
 .debug_ranges  0x0000000000000668       0x40 build/machines/cortex/armv7em/stm32f303/coroLabBoard/tft/Adafruit-ST7735-Library/Adafruit_ST77xx.cpp.o
 .debug_ranges  0x00000000000006a8      0x2c8 build/machines/cortex/armv7em/stm32f303/coroLabBoard/tft/Adafruit-GFX-Library/Adafruit_GFX.cpp.o
 .debug_ranges  0x0000000000000970       0xb8 build/machines/cortex/armv7em/stm32f303/coroLabBoard/tft/Adafruit-GFX-Library/Adafruit_SPITFT.cpp.o

.debug_line     0x0000000000000000     0x7e90
 .debug_line    0x0000000000000000      0x579 build/os/tpl_os_kernel.c.o
 .debug_line    0x0000000000000579      0x2ea build/os/tpl_os_timeobj_kernel.c.o
 .debug_line    0x0000000000000863       0xf8 build/os/tpl_os_os_kernel.c.o
 .debug_line    0x000000000000095b       0xc1 build/os/tpl_os_os.c.o
 .debug_line    0x0000000000000a1c      0x1f7 build/os/tpl_os_interrupt_kernel.c.o
 .debug_line    0x0000000000000c13      0x297 build/os/tpl_os_task_kernel.c.o
 .debug_line    0x0000000000000eaa      0x245 build/os/tpl_os_resource_kernel.c.o
 .debug_line    0x00000000000010ef      0x17e build/lab1/tpl_app_config.c.o
 .debug_line    0x000000000000126d       0x65 build/lab1/tpl_dispatch_table.c.o
 .debug_line    0x00000000000012d2      0x120 build/lab1/tpl_invoque.S.o
 .debug_line    0x00000000000013f2       0x5b build/lab1/tpl_primary_irq.S.o
 .debug_line    0x000000000000144d       0x94 build/lab1/tpl_vectors.c.o
 .debug_line    0x00000000000014e1      0x164 build/lab1/tpl_external_interrupts.c.o
 .debug_line    0x0000000000001645       0x50 build/lab1/tpl_app_interrupts.c.o
 .debug_line    0x0000000000001695      0x3cf build/machines/cortex/tpl_machine_cortex.c.o
 .debug_line    0x0000000000001a64       0x96 build/machines/cortex/tpl_sc_handler.S.o
 .debug_line    0x0000000000001afa       0x64 build/machines/cortex/tpl_startup.S.o
 .debug_line    0x0000000000001b5e       0x86 build/machines/cortex/armv7em/tpl_ctx_switch.S.o
 .debug_line    0x0000000000001be4       0x8b build/machines/cortex/armv7em/tpl_ctx_switch_under_it.S.o
 .debug_line    0x0000000000001c6f       0x7d build/machines/cortex/armv7em/tpl_interrupts.S.o
 .debug_line    0x0000000000001cec      0x27f build/machines/cortex/armv7em/stm32f303/handlers_stm32f3xx.c.o
 .debug_line    0x0000000000001f6b      0x336 build/machines/cortex/armv7em/stm32f303/startup_stm32f3xx.c.o
 .debug_line    0x00000000000022a1      0x2b9 build/machines/cortex/armv7em/stm32f303/system_stm32f30x.c.o
 .debug_line    0x000000000000255a      0x290 build/machines/cortex/armv7em/stm32f303/tpl_machine_stm32f303.c.o
 .debug_line    0x00000000000027ea      0x505 build/machines/cortex/armv7em/stm32f303/lib/pinAccess.c.o
 .debug_line    0x0000000000002cef      0x318 build/machines/cortex/armv7em/stm32f303/coroLabBoard/spi.c.o
 .debug_line    0x0000000000003007      0x24e build/lab1.cpp.o
 .debug_line    0x0000000000003255      0x48c build/machines/cortex/armv7em/stm32f303/coroLabBoard/mcp23s17.cpp.o
 .debug_line    0x00000000000036e1      0x4ae build/machines/cortex/armv7em/stm32f303/coroLabBoard/coroBoard.cpp.o
 .debug_line    0x0000000000003b8f      0x859 build/machines/cortex/armv7em/stm32f303/coroLabBoard/tft/arduinoCore/Print.cpp.o
 .debug_line    0x00000000000043e8      0x61a build/machines/cortex/armv7em/stm32f303/coroLabBoard/tft/tft.cpp.o
 .debug_line    0x0000000000004a02      0x54b build/machines/cortex/armv7em/stm32f303/coroLabBoard/tft/Adafruit-ST7735-Library/Adafruit_ST7735.cpp.o
 .debug_line    0x0000000000004f4d      0x58c build/machines/cortex/armv7em/stm32f303/coroLabBoard/tft/Adafruit-ST7735-Library/Adafruit_ST77xx.cpp.o
 .debug_line    0x00000000000054d9     0x2185 build/machines/cortex/armv7em/stm32f303/coroLabBoard/tft/Adafruit-GFX-Library/Adafruit_GFX.cpp.o
 .debug_line    0x000000000000765e      0x832 build/machines/cortex/armv7em/stm32f303/coroLabBoard/tft/Adafruit-GFX-Library/Adafruit_SPITFT.cpp.o

.debug_str      0x0000000000000000     0x4ff4
 .debug_str     0x0000000000000000      0x6de build/os/tpl_os_kernel.c.o
                                        0x7c4 (size before relaxing)
 .debug_str     0x00000000000006de      0x1df build/os/tpl_os_timeobj_kernel.c.o
                                        0x38f (size before relaxing)
 .debug_str     0x00000000000008bd       0x90 build/os/tpl_os_os_kernel.c.o
                                        0x261 (size before relaxing)
 .debug_str     0x000000000000094d       0x33 build/os/tpl_os_os.c.o
                                        0x1c3 (size before relaxing)
 .debug_str     0x0000000000000980      0x1ce build/os/tpl_os_interrupt_kernel.c.o
                                        0x5d8 (size before relaxing)
 .debug_str     0x0000000000000b4e       0xbc build/os/tpl_os_task_kernel.c.o
                                        0x506 (size before relaxing)
 .debug_str     0x0000000000000c0a       0xc4 build/os/tpl_os_resource_kernel.c.o
                                        0x534 (size before relaxing)
 .debug_str     0x0000000000000cce      0x226 build/lab1/tpl_app_config.c.o
                                        0x7f8 (size before relaxing)
 .debug_str     0x0000000000000ef4       0x3d build/lab1/tpl_dispatch_table.c.o
                                        0x1ad (size before relaxing)
 .debug_str     0x0000000000000f31       0x21 build/lab1/tpl_invoque.S.o
                                         0x58 (size before relaxing)
 .debug_str     0x0000000000000f52       0x17 build/lab1/tpl_primary_irq.S.o
                                         0x5c (size before relaxing)
 .debug_str     0x0000000000000f69       0x39 build/lab1/tpl_vectors.c.o
                                        0x1a9 (size before relaxing)
 .debug_str     0x0000000000000fa2       0x8e build/lab1/tpl_external_interrupts.c.o
                                        0x213 (size before relaxing)
 .debug_str     0x0000000000001030       0x62 build/lab1/tpl_app_interrupts.c.o
                                        0x1d2 (size before relaxing)
 .debug_str     0x0000000000001092      0x4ca build/machines/cortex/tpl_machine_cortex.c.o
                                        0x87e (size before relaxing)
 .debug_str     0x000000000000155c       0x31 build/machines/cortex/tpl_sc_handler.S.o
                                         0x76 (size before relaxing)
 .debug_str     0x000000000000158d       0x2e build/machines/cortex/tpl_startup.S.o
                                         0x73 (size before relaxing)
 .debug_str     0x00000000000015bb       0x39 build/machines/cortex/armv7em/tpl_ctx_switch.S.o
                                         0x7e (size before relaxing)
 .debug_str     0x00000000000015f4       0x42 build/machines/cortex/armv7em/tpl_ctx_switch_under_it.S.o
                                         0x87 (size before relaxing)
 .debug_str     0x0000000000001636       0x39 build/machines/cortex/armv7em/tpl_interrupts.S.o
                                         0x7e (size before relaxing)
 .debug_str     0x000000000000166f      0x11f build/machines/cortex/armv7em/stm32f303/handlers_stm32f3xx.c.o
                                        0x31a (size before relaxing)
 .debug_str     0x000000000000178e      0x2ae build/machines/cortex/armv7em/stm32f303/startup_stm32f3xx.c.o
                                        0x374 (size before relaxing)
 .debug_str     0x0000000000001a3c       0xca build/machines/cortex/armv7em/stm32f303/system_stm32f30x.c.o
                                        0x2cf (size before relaxing)
 .debug_str     0x0000000000001b06       0x99 build/machines/cortex/armv7em/stm32f303/tpl_machine_stm32f303.c.o
                                        0x60a (size before relaxing)
 .debug_str     0x0000000000001b9f      0x10c build/machines/cortex/armv7em/stm32f303/lib/pinAccess.c.o
                                        0x307 (size before relaxing)
 .debug_str     0x0000000000001cab       0xaa build/machines/cortex/armv7em/stm32f303/coroLabBoard/spi.c.o
                                        0x2da (size before relaxing)
 .debug_str     0x0000000000001d55      0x49a build/lab1.cpp.o
                                        0x636 (size before relaxing)
 .debug_str     0x00000000000021ef      0x1d2 build/machines/cortex/armv7em/stm32f303/coroLabBoard/mcp23s17.cpp.o
                                        0x837 (size before relaxing)
 .debug_str     0x00000000000023c1      0x37b build/machines/cortex/armv7em/stm32f303/coroLabBoard/coroBoard.cpp.o
                                        0xa45 (size before relaxing)
 .debug_str     0x000000000000273c      0xea3 build/machines/cortex/armv7em/stm32f303/coroLabBoard/tft/arduinoCore/Print.cpp.o
                                       0x137b (size before relaxing)
 .debug_str     0x00000000000035df      0x158 build/machines/cortex/armv7em/stm32f303/coroLabBoard/tft/tft.cpp.o
                                        0x701 (size before relaxing)
 .debug_str     0x0000000000003737      0x151 build/machines/cortex/armv7em/stm32f303/coroLabBoard/tft/Adafruit-ST7735-Library/Adafruit_ST7735.cpp.o
                                        0x5af (size before relaxing)
 .debug_str     0x0000000000003888      0x2ed build/machines/cortex/armv7em/stm32f303/coroLabBoard/tft/Adafruit-ST7735-Library/Adafruit_ST77xx.cpp.o
                                        0x726 (size before relaxing)
 .debug_str     0x0000000000003b75      0xfc5 build/machines/cortex/armv7em/stm32f303/coroLabBoard/tft/Adafruit-GFX-Library/Adafruit_GFX.cpp.o
                                       0x1596 (size before relaxing)
 .debug_str     0x0000000000004b3a      0x4ba build/machines/cortex/armv7em/stm32f303/coroLabBoard/tft/Adafruit-GFX-Library/Adafruit_SPITFT.cpp.o
                                        0xa8e (size before relaxing)

.comment        0x0000000000000000       0x49
 .comment       0x0000000000000000       0x49 build/os/tpl_os_kernel.c.o
                                         0x4a (size before relaxing)
 .comment       0x0000000000000049       0x4a build/os/tpl_os_timeobj_kernel.c.o
 .comment       0x0000000000000049       0x4a build/os/tpl_os_os_kernel.c.o
 .comment       0x0000000000000049       0x4a build/os/tpl_os_os.c.o
 .comment       0x0000000000000049       0x4a build/os/tpl_os_interrupt_kernel.c.o
 .comment       0x0000000000000049       0x4a build/os/tpl_os_task_kernel.c.o
 .comment       0x0000000000000049       0x4a build/os/tpl_os_resource_kernel.c.o
 .comment       0x0000000000000049       0x4a build/lab1/tpl_app_config.c.o
 .comment       0x0000000000000049       0x4a build/lab1/tpl_dispatch_table.c.o
 .comment       0x0000000000000049       0x4a build/lab1/tpl_vectors.c.o
 .comment       0x0000000000000049       0x4a build/lab1/tpl_external_interrupts.c.o
 .comment       0x0000000000000049       0x4a build/lab1/tpl_app_interrupts.c.o
 .comment       0x0000000000000049       0x4a build/machines/cortex/tpl_machine_cortex.c.o
 .comment       0x0000000000000049       0x4a build/machines/cortex/armv7em/stm32f303/handlers_stm32f3xx.c.o
 .comment       0x0000000000000049       0x4a build/machines/cortex/armv7em/stm32f303/startup_stm32f3xx.c.o
 .comment       0x0000000000000049       0x4a build/machines/cortex/armv7em/stm32f303/system_stm32f30x.c.o
 .comment       0x0000000000000049       0x4a build/machines/cortex/armv7em/stm32f303/tpl_machine_stm32f303.c.o
 .comment       0x0000000000000049       0x4a build/machines/cortex/armv7em/stm32f303/lib/pinAccess.c.o
 .comment       0x0000000000000049       0x4a build/machines/cortex/armv7em/stm32f303/coroLabBoard/spi.c.o
 .comment       0x0000000000000049       0x4a build/lab1.cpp.o
 .comment       0x0000000000000049       0x4a build/machines/cortex/armv7em/stm32f303/coroLabBoard/mcp23s17.cpp.o
 .comment       0x0000000000000049       0x4a build/machines/cortex/armv7em/stm32f303/coroLabBoard/coroBoard.cpp.o
 .comment       0x0000000000000049       0x4a build/machines/cortex/armv7em/stm32f303/coroLabBoard/tft/arduinoCore/Print.cpp.o
 .comment       0x0000000000000049       0x4a build/machines/cortex/armv7em/stm32f303/coroLabBoard/tft/tft.cpp.o
 .comment       0x0000000000000049       0x4a build/machines/cortex/armv7em/stm32f303/coroLabBoard/tft/Adafruit-ST7735-Library/Adafruit_ST7735.cpp.o
 .comment       0x0000000000000049       0x4a build/machines/cortex/armv7em/stm32f303/coroLabBoard/tft/Adafruit-ST7735-Library/Adafruit_ST77xx.cpp.o
 .comment       0x0000000000000049       0x4a build/machines/cortex/armv7em/stm32f303/coroLabBoard/tft/Adafruit-GFX-Library/Adafruit_GFX.cpp.o
 .comment       0x0000000000000049       0x4a build/machines/cortex/armv7em/stm32f303/coroLabBoard/tft/Adafruit-GFX-Library/Adafruit_SPITFT.cpp.o

.debug_frame    0x0000000000000000     0x27d4
 .debug_frame   0x0000000000000000      0x360 build/os/tpl_os_kernel.c.o
 .debug_frame   0x0000000000000360       0xcc build/os/tpl_os_timeobj_kernel.c.o
 .debug_frame   0x000000000000042c       0xa0 build/os/tpl_os_os_kernel.c.o
 .debug_frame   0x00000000000004cc       0x34 build/os/tpl_os_os.c.o
 .debug_frame   0x0000000000000500      0x14c build/os/tpl_os_interrupt_kernel.c.o
 .debug_frame   0x000000000000064c       0xe8 build/os/tpl_os_task_kernel.c.o
 .debug_frame   0x0000000000000734       0x80 build/os/tpl_os_resource_kernel.c.o
 .debug_frame   0x00000000000007b4       0x48 build/lab1/tpl_app_config.c.o
 .debug_frame   0x00000000000007fc       0x30 build/lab1/tpl_external_interrupts.c.o
 .debug_frame   0x000000000000082c       0x70 build/lab1/tpl_app_interrupts.c.o
 .debug_frame   0x000000000000089c      0x118 build/machines/cortex/tpl_machine_cortex.c.o
 .debug_frame   0x00000000000009b4       0xdc build/machines/cortex/armv7em/stm32f303/handlers_stm32f3xx.c.o
 .debug_frame   0x0000000000000a90       0x98 build/machines/cortex/armv7em/stm32f303/startup_stm32f3xx.c.o
 .debug_frame   0x0000000000000b28       0x38 build/machines/cortex/armv7em/stm32f303/system_stm32f30x.c.o
 .debug_frame   0x0000000000000b60       0x78 build/machines/cortex/armv7em/stm32f303/tpl_machine_stm32f303.c.o
 .debug_frame   0x0000000000000bd8       0xa4 build/machines/cortex/armv7em/stm32f303/lib/pinAccess.c.o
 .debug_frame   0x0000000000000c7c       0x6c build/machines/cortex/armv7em/stm32f303/coroLabBoard/spi.c.o
 .debug_frame   0x0000000000000ce8       0x80 build/lab1.cpp.o
 .debug_frame   0x0000000000000d68      0x2b8 build/machines/cortex/armv7em/stm32f303/coroLabBoard/mcp23s17.cpp.o
 .debug_frame   0x0000000000001020       0xb0 build/machines/cortex/armv7em/stm32f303/coroLabBoard/coroBoard.cpp.o
 .debug_frame   0x00000000000010d0      0x468 build/machines/cortex/armv7em/stm32f303/coroLabBoard/tft/arduinoCore/Print.cpp.o
 .debug_frame   0x0000000000001538      0x174 build/machines/cortex/armv7em/stm32f303/coroLabBoard/tft/tft.cpp.o
 .debug_frame   0x00000000000016ac       0x80 build/machines/cortex/armv7em/stm32f303/coroLabBoard/tft/Adafruit-ST7735-Library/Adafruit_ST7735.cpp.o
 .debug_frame   0x000000000000172c      0x110 build/machines/cortex/armv7em/stm32f303/coroLabBoard/tft/Adafruit-ST7735-Library/Adafruit_ST77xx.cpp.o
 .debug_frame   0x000000000000183c      0xc40 build/machines/cortex/armv7em/stm32f303/coroLabBoard/tft/Adafruit-GFX-Library/Adafruit_GFX.cpp.o
 .debug_frame   0x000000000000247c      0x358 build/machines/cortex/armv7em/stm32f303/coroLabBoard/tft/Adafruit-GFX-Library/Adafruit_SPITFT.cpp.o

.debug_loc      0x0000000000000000      0x666
 .debug_loc     0x0000000000000000      0x18f build/machines/cortex/armv7em/stm32f303/startup_stm32f3xx.c.o
 .debug_loc     0x000000000000018f       0xfe build/machines/cortex/armv7em/stm32f303/system_stm32f30x.c.o
 .debug_loc     0x000000000000028d      0x3a9 build/machines/cortex/armv7em/stm32f303/lib/pinAccess.c.o
 .debug_loc     0x0000000000000636       0x30 build/machines/cortex/armv7em/stm32f303/coroLabBoard/spi.c.o
